

Microchip Technology PIC LITE Macro Assembler V1.45 build -152302408 
                                                                                               Tue May 22 11:41:07 2018

Microchip Technology Omniscient Code Generator v1.45 (Free mode) build 201711160504
     1                           	processor	16F877A
     2                           	opt	pw 120
     3                           	opt	lm
     4                           	psect	idataBANK0,global,class=CODE,delta=2
     5                           	psect	idataBANK1,global,class=CODE,delta=2
     6                           	psect	idataBANK2,global,class=CODE,delta=2
     7                           	psect	idataBANK3,global,class=CODE,delta=2
     8                           	psect	strings,global,class=STRING,delta=2
     9                           	psect	cinit,global,class=CODE,merge=1,delta=2
    10                           	psect	bssCOMMON,global,class=COMMON,space=1,delta=1
    11                           	psect	bssBANK0,global,class=BANK0,space=1,delta=1
    12                           	psect	dataBANK0,global,class=BANK0,space=1,delta=1
    13                           	psect	bssBANK1,global,class=BANK1,space=1,delta=1
    14                           	psect	dataBANK1,global,class=BANK1,space=1,delta=1
    15                           	psect	bssBANK3,global,class=BANK3,space=1,delta=1
    16                           	psect	dataBANK3,global,class=BANK3,space=1,delta=1
    17                           	psect	dataBANK2,global,class=BANK2,space=1,delta=1
    18                           	psect	inittext,global,class=CODE,delta=2
    19                           	psect	clrtext,global,class=CODE,delta=2
    20                           	psect	cstackBANK3,global,class=BANK3,space=1,delta=1
    21                           	psect	cstackBANK1,global,class=BANK1,space=1,delta=1
    22                           	psect	cstackCOMMON,global,class=COMMON,space=1,delta=1
    23                           	psect	cstackBANK0,global,class=BANK0,space=1,delta=1
    24                           	psect	maintext,global,class=CODE,split=1,delta=2
    25                           	psect	text1,local,class=CODE,merge=1,delta=2,group=2
    26                           	psect	text2,local,class=CODE,merge=1,delta=2
    27                           	psect	text3,local,class=CODE,merge=1,delta=2
    28                           	psect	text4,local,class=CODE,merge=1,delta=2
    29                           	psect	text5,local,class=CODE,merge=1,delta=2
    30                           	psect	text6,local,class=CODE,merge=1,delta=2
    31                           	psect	text7,local,class=CODE,merge=1,delta=2
    32                           	psect	text8,local,class=CODE,merge=1,delta=2
    33                           	psect	text9,local,class=CODE,merge=1,delta=2
    34                           	psect	text10,local,class=CODE,merge=1,delta=2
    35                           	psect	text11,local,class=CODE,merge=1,delta=2
    36                           	psect	text12,local,class=CODE,merge=1,delta=2
    37                           	psect	text13,local,class=CODE,merge=1,delta=2
    38                           	psect	text14,local,class=CODE,merge=1,delta=2
    39                           	psect	text15,local,class=CODE,merge=1,delta=2
    40                           	psect	intentry,global,class=CODE,delta=2
    41                           	psect	text16,local,class=CODE,merge=1,delta=2
    42                           	psect	text17,local,class=CODE,merge=1,delta=2
    43                           	psect	text18,local,class=CODE,merge=1,delta=2
    44                           	psect	text19,local,class=CODE,merge=1,delta=2
    45                           	psect	text20,local,class=CODE,merge=1,delta=2
    46                           	psect	text21,local,class=CODE,merge=1,delta=2
    47                           	psect	text22,local,class=CODE,merge=1,delta=2,group=2
    48                           	psect	text23,local,class=CODE,merge=1,delta=2
    49                           	psect	text24,local,class=CODE,merge=1,delta=2
    50                           	psect	text25,local,class=CODE,merge=1,delta=2
    51                           	psect	text26,local,class=CODE,merge=1,delta=2
    52                           	psect	text27,local,class=CODE,merge=1,delta=2
    53                           	psect	text28,local,class=CODE,merge=1,delta=2
    54                           	dabs	1,0x7E,2
    55  0000                     
    56                           ; Version 1.45
    57                           ; Generated 16/11/2017 GMT
    58                           ; 
    59                           ; Copyright © 2017, Microchip Technology Inc. and its subsidiaries ("Microchip")
    60                           ; All rights reserved.
    61                           ; 
    62                           ; This software is developed by Microchip Technology Inc. and its subsidiaries ("Microch
      +                          ip").
    63                           ; 
    64                           ; Redistribution and use in source and binary forms, with or without modification, are
    65                           ; permitted provided that the following conditions are met:
    66                           ; 
    67                           ;     1. Redistributions of source code must retain the above copyright notice, this lis
      +                          t of
    68                           ;        conditions and the following disclaimer.
    69                           ; 
    70                           ;     2. Redistributions in binary form must reproduce the above copyright notice, this 
      +                          list
    71                           ;        of conditions and the following disclaimer in the documentation and/or other
    72                           ;        materials provided with the distribution.
    73                           ; 
    74                           ;     3. Microchip's name may not be used to endorse or promote products derived from th
      +                          is
    75                           ;        software without specific prior written permission.
    76                           ; 
    77                           ; THIS SOFTWARE IS PROVIDED BY MICROCHIP "AS IS" AND ANY EXPRESS OR IMPLIED WARRANTIES,
    78                           ; INCLUDING, BUT NOT LIMITED TO, THE IMPLIED WARRANTIES OF MERCHANTABILITY AND FITNESS F
      +                          OR
    79                           ; PURPOSE ARE DISCLAIMED.  IN NO EVENT SHALL MICROCHIP BE LIABLE FOR ANY DIRECT, INDIREC
      +                          T,
    80                           ; INCIDENTAL, SPECIAL, EXEMPLARY, OR CONSEQUENTIAL DAMAGES (INCLUDING BUT NOT LIMITED TO
    81                           ; PROCUREMENT OF SUBSTITUTE GOODS OR SERVICES; LOSS OF USE, DATA OR PROFITS; OR BUSINESS
    82                           ; INTERRUPTION) HOWSOEVER CAUSED AND ON ANY THEORY OF LIABILITY, WHETHER IN CONTRACT, ST
      +                          RICT
    83                           ; LIABILITY, OR TORT (INCLUDING NEGLIGENCE OR OTHERWISE) ARISING IN ANY WAY OUT OF THE U
      +                          SE OF
    84                           ; THIS SOFTWARE, EVEN IF ADVISED OF THE POSSIBILITY OF SUCH DAMAGE.
    85                           ; 
    86                           ; 
    87                           ; Code-generator required, PIC16F877A Definitions
    88                           ; 
    89                           ; SFR Addresses
    90  0000                     	;# 
    91  0001                     	;# 
    92  0002                     	;# 
    93  0003                     	;# 
    94  0004                     	;# 
    95  0005                     	;# 
    96  0006                     	;# 
    97  0007                     	;# 
    98  0008                     	;# 
    99  0009                     	;# 
   100  000A                     	;# 
   101  000B                     	;# 
   102  000C                     	;# 
   103  000D                     	;# 
   104  000E                     	;# 
   105  000E                     	;# 
   106  000F                     	;# 
   107  0010                     	;# 
   108  0011                     	;# 
   109  0012                     	;# 
   110  0013                     	;# 
   111  0014                     	;# 
   112  0015                     	;# 
   113  0015                     	;# 
   114  0016                     	;# 
   115  0017                     	;# 
   116  0018                     	;# 
   117  0019                     	;# 
   118  001A                     	;# 
   119  001B                     	;# 
   120  001B                     	;# 
   121  001C                     	;# 
   122  001D                     	;# 
   123  001E                     	;# 
   124  001F                     	;# 
   125  0081                     	;# 
   126  0085                     	;# 
   127  0086                     	;# 
   128  0087                     	;# 
   129  0088                     	;# 
   130  0089                     	;# 
   131  008C                     	;# 
   132  008D                     	;# 
   133  008E                     	;# 
   134  0091                     	;# 
   135  0092                     	;# 
   136  0093                     	;# 
   137  0094                     	;# 
   138  0098                     	;# 
   139  0099                     	;# 
   140  009C                     	;# 
   141  009D                     	;# 
   142  009E                     	;# 
   143  009F                     	;# 
   144  010C                     	;# 
   145  010D                     	;# 
   146  010E                     	;# 
   147  010F                     	;# 
   148  018C                     	;# 
   149  018D                     	;# 
   150                           
   151                           	psect	idataBANK0
   152  0DFE                     __pidataBANK0:	
   153                           
   154                           ;initializer for _mesg
   155  0DFE  3468               	retlw	104
   156  0DFF  3448               	retlw	72
   157  0E00  3448               	retlw	72
   158  0E01  3448               	retlw	72
   159  0E02  3448               	retlw	72
   160  0E03  3400               	retlw	0
   161                           
   162                           ;initializer for _t2
   163  0E04  340A               	retlw	10
   164  0E05  3400               	retlw	0
   165                           
   166                           ;initializer for _t
   167  0E06  340A               	retlw	10
   168  0E07  3400               	retlw	0
   169                           
   170                           ;initializer for _c1
   171  0E08  3431               	retlw	49
   172  0E09  3441               	retlw	65
   173  0E0A  3433               	retlw	51
   174  0E0B  3434               	retlw	52
   175  0E0C  3400               	retlw	0
   176                           
   177                           ;initializer for _b
   178  0E0D  3434               	retlw	52
   179  0E0E  3435               	retlw	53
   180  0E0F  3438               	retlw	56
   181  0E10  3442               	retlw	66
   182  0E11  3400               	retlw	0
   183                           
   184                           ;initializer for _a1
   185  0E12  3441               	retlw	65
   186  0E13  3431               	retlw	49
   187  0E14  3432               	retlw	50
   188  0E15  3433               	retlw	51
   189  0E16  3400               	retlw	0
   190                           
   191                           ;initializer for _noecho
   192  0E17  3441               	retlw	65
   193  0E18  3454               	retlw	84
   194  0E19  3445               	retlw	69
   195  0E1A  3430               	retlw	48
   196  0E1B  3400               	retlw	0
   197                           
   198                           ;initializer for _AT
   199  0E1C  3441               	retlw	65
   200  0E1D  3454               	retlw	84
   201  0E1E  3400               	retlw	0
   202                           
   203                           	psect	idataBANK1
   204  0CFD                     __pidataBANK1:	
   205                           
   206                           ;initializer for _rf1
   207  0CFD  3430               	retlw	48
   208  0CFE  3430               	retlw	48
   209  0CFF  3430               	retlw	48
   210  0D00  3431               	retlw	49
   211  0D01  3434               	retlw	52
   212  0D02  3438               	retlw	56
   213  0D03  3435               	retlw	53
   214  0D04  3433               	retlw	51
   215  0D05  3438               	retlw	56
   216  0D06  3439               	retlw	57
   217  0D07  3400               	retlw	0
   218                           
   219                           ;initializer for _mode_text
   220  0D08  3441               	retlw	65
   221  0D09  3454               	retlw	84
   222  0D0A  342B               	retlw	43
   223  0D0B  3443               	retlw	67
   224  0D0C  344D               	retlw	77
   225  0D0D  3447               	retlw	71
   226  0D0E  3446               	retlw	70
   227  0D0F  343D               	retlw	61
   228  0D10  3431               	retlw	49
   229  0D11  3400               	retlw	0
   230                           
   231                           	psect	idataBANK2
   232  0D40                     __pidataBANK2:	
   233                           
   234                           ;initializer for _mobile_no
   235  0D40  3441               	retlw	65
   236  0D41  3454               	retlw	84
   237  0D42  342B               	retlw	43
   238  0D43  3443               	retlw	67
   239  0D44  344D               	retlw	77
   240  0D45  3447               	retlw	71
   241  0D46  3453               	retlw	83
   242  0D47  343D               	retlw	61
   243  0D48  3422               	retlw	34
   244  0D49  342B               	retlw	43
   245  0D4A  3439               	retlw	57
   246  0D4B  3431               	retlw	49
   247  0D4C  3439               	retlw	57
   248  0D4D  3437               	retlw	55
   249  0D4E  3434               	retlw	52
   250  0D4F  3437               	retlw	55
   251  0D50  3431               	retlw	49
   252  0D51  3435               	retlw	53
   253  0D52  3434               	retlw	52
   254  0D53  3433               	retlw	51
   255  0D54  3436               	retlw	54
   256  0D55  3433               	retlw	51
   257  0D56  3422               	retlw	34
   258  0D57  3400               	retlw	0
   259                           
   260                           	psect	idataBANK3
   261  0E41                     __pidataBANK3:	
   262                           
   263                           ;initializer for _param
   264  0E41  3441               	retlw	65
   265  0E42  3454               	retlw	84
   266  0E43  342B               	retlw	43
   267  0E44  3443               	retlw	67
   268  0E45  3453               	retlw	83
   269  0E46  344D               	retlw	77
   270  0E47  3450               	retlw	80
   271  0E48  343D               	retlw	61
   272  0E49  3431               	retlw	49
   273  0E4A  3437               	retlw	55
   274  0E4B  342C               	retlw	44
   275  0E4C  3431               	retlw	49
   276  0E4D  3436               	retlw	54
   277  0E4E  3437               	retlw	55
   278  0E4F  342C               	retlw	44
   279  0E50  3430               	retlw	48
   280  0E51  342C               	retlw	44
   281  0E52  3430               	retlw	48
   282  0E53  3400               	retlw	0
   283                           
   284                           ;initializer for _char_mode
   285  0E54  3441               	retlw	65
   286  0E55  3454               	retlw	84
   287  0E56  342B               	retlw	43
   288  0E57  3443               	retlw	67
   289  0E58  3453               	retlw	83
   290  0E59  3443               	retlw	67
   291  0E5A  3453               	retlw	83
   292  0E5B  343D               	retlw	61
   293  0E5C  3422               	retlw	34
   294  0E5D  3447               	retlw	71
   295  0E5E  3453               	retlw	83
   296  0E5F  344D               	retlw	77
   297  0E60  3422               	retlw	34
   298  0E61  340D               	retlw	13
   299  0E62  3400               	retlw	0
   300  0008                     _PORTD	set	8
   301  0007                     _PORTC	set	7
   302  001B                     _CCPR2L	set	27
   303  0015                     _CCPR1L	set	21
   304  001E                     _ADRESH	set	30
   305  001F                     _ADCON0	set	31
   306  0005                     _PORTA	set	5
   307  001A                     _RCREG	set	26
   308  0019                     _TXREG	set	25
   309  0018                     _RCSTA	set	24
   310  0059                     _INTF	set	89
   311  005C                     _INTE	set	92
   312  005E                     _PEIE	set	94
   313  005F                     _GIE	set	95
   314  0033                     _RB3	set	51
   315  0032                     _RB2	set	50
   316  003B                     _RC3	set	59
   317  003A                     _RC2	set	58
   318  0039                     _RC1	set	57
   319  0038                     _RC0	set	56
   320  0037                     _RB7	set	55
   321  0036                     _RB6	set	54
   322  0035                     _RB5	set	53
   323  0034                     _RB4	set	52
   324  0091                     _T2CKPS1	set	145
   325  0090                     _T2CKPS0	set	144
   326  00EA                     _CCP2M2	set	234
   327  00EB                     _CCP2M3	set	235
   328  0092                     _TMR2ON	set	146
   329  00BA                     _CCP1M2	set	186
   330  00BB                     _CCP1M3	set	187
   331  00EC                     _CCP2Y	set	236
   332  00ED                     _CCP2X	set	237
   333  00BC                     _CCP1Y	set	188
   334  00BD                     _CCP1X	set	189
   335  0040                     _RD0	set	64
   336  0042                     _RD2	set	66
   337  0041                     _RD1	set	65
   338  0047                     _RD7	set	71
   339  0046                     _RD6	set	70
   340  0045                     _RD5	set	69
   341  0044                     _RD4	set	68
   342  00FA                     _GO_nDONE	set	250
   343  0065                     _RCIF	set	101
   344  00C4                     _CREN	set	196
   345  00C7                     _SPEN	set	199
   346  0088                     _TRISD	set	136
   347  0092                     _PR2	set	146
   348  009E                     _ADRESL	set	158
   349  009F                     _ADCON1	set	159
   350  0085                     _TRISA	set	133
   351  0099                     _SPBRG	set	153
   352  0098                     _TXSTA	set	152
   353  0465                     _RCIE	set	1125
   354  040E                     _INTEDG	set	1038
   355  0433                     _TRISB3	set	1075
   356  0432                     _TRISB2	set	1074
   357  0437                     _TRISB7	set	1079
   358  0436                     _TRISB6	set	1078
   359  0435                     _TRISB5	set	1077
   360  0434                     _TRISB4	set	1076
   361  043B                     _TRISC3	set	1083
   362  0438                     _TRISC0	set	1080
   363  0439                     _TRISC1	set	1081
   364  043A                     _TRISC2	set	1082
   365  04C1                     _TRMT	set	1217
   366  04C4                     _SYNC	set	1220
   367  04C5                     _TXEN	set	1221
   368  04C2                     _BRGH	set	1218
   369  043E                     _TRISC6	set	1086
   370  043F                     _TRISC7	set	1087
   371                           
   372                           	psect	strings
   373  0400                     __pstrings:	
   374  0400                     stringtab:	
   375  0400                     __stringtab:	
   376                           
   377                           ;	String table - string pointers are 1 byte each
   378  0400  1BFF               	btfsc	btemp+1,7
   379  0401  2C0A               	ljmp	stringcode
   380  0402  1383               	bcf	3,7
   381  0403  187F               	btfsc	btemp+1,0
   382  0404  1783               	bsf	3,7
   383  0405  0800               	movf	0,w
   384  0406  0A84               	incf	4,f
   385  0407  1903               	skipnz
   386  0408  0AFF               	incf	btemp+1,f
   387  0409  0008               	return
   388  040A                     stringcode:	
   389  040A                     stringdir:	
   390  040A  3004               	movlw	high stringdir
   391  040B  008A               	movwf	10
   392  040C  0804               	movf	4,w
   393  040D  0A84               	incf	4,f
   394  040E  0782               	addwf	2,f
   395  040F                     __stringbase:	
   396  040F  3400               	retlw	0
   397  0410                     __end_of__stringtab:	
   398  0410                     STR_13:	
   399  0410  344C               	retlw	76	;'L'
   400  0411  344F               	retlw	79	;'O'
   401  0412  3443               	retlw	67	;'C'
   402  0413  344B               	retlw	75	;'K'
   403  0414  3445               	retlw	69	;'E'
   404  0415  3452               	retlw	82	;'R'
   405  0416  3420               	retlw	32	;' '
   406  0417  3453               	retlw	83	;'S'
   407  0418  3445               	retlw	69	;'E'
   408  0419  3443               	retlw	67	;'C'
   409  041A  3455               	retlw	85	;'U'
   410  041B  3452               	retlw	82	;'R'
   411  041C  3449               	retlw	73	;'I'
   412  041D  3454               	retlw	84	;'T'
   413  041E  3459               	retlw	89	;'Y'
   414  041F  3420               	retlw	32	;' '
   415  0420  3455               	retlw	85	;'U'
   416  0421  344E               	retlw	78	;'N'
   417  0422  3449               	retlw	73	;'I'
   418  0423  3454               	retlw	84	;'T'
   419  0424  343A               	retlw	58	;':'
   420  0425  340A               	retlw	10
   421  0426  340D               	retlw	13
   422  0427  3443               	retlw	67	;'C'
   423  0428  3461               	retlw	97	;'a'
   424  0429  3475               	retlw	117	;'u'
   425  042A  3474               	retlw	116	;'t'
   426  042B  3469               	retlw	105	;'i'
   427  042C  346F               	retlw	111	;'o'
   428  042D  346E               	retlw	110	;'n'
   429  042E  343A               	retlw	58	;':'
   430  042F  3453               	retlw	83	;'S'
   431  0430  3465               	retlw	101	;'e'
   432  0431  3463               	retlw	99	;'c'
   433  0432  3475               	retlw	117	;'u'
   434  0433  3472               	retlw	114	;'r'
   435  0434  3469               	retlw	105	;'i'
   436  0435  3474               	retlw	116	;'t'
   437  0436  3479               	retlw	121	;'y'
   438  0437  3420               	retlw	32	;' '
   439  0438  3461               	retlw	97	;'a'
   440  0439  346C               	retlw	108	;'l'
   441  043A  3465               	retlw	101	;'e'
   442  043B  3472               	retlw	114	;'r'
   443  043C  3474               	retlw	116	;'t'
   444  043D  340A               	retlw	10
   445  043E  340D               	retlw	13
   446  043F  3445               	retlw	69	;'E'
   447  0440  346D               	retlw	109	;'m'
   448  0441  3465               	retlw	101	;'e'
   449  0442  3472               	retlw	114	;'r'
   450  0443  3467               	retlw	103	;'g'
   451  0444  3465               	retlw	101	;'e'
   452  0445  346E               	retlw	110	;'n'
   453  0446  3463               	retlw	99	;'c'
   454  0447  3479               	retlw	121	;'y'
   455  0448  3400               	retlw	0
   456  0449                     STR_9:	
   457  0449  3450               	retlw	80	;'P'
   458  044A  3461               	retlw	97	;'a'
   459  044B  342E               	retlw	46	;'.'
   460  044C  3477               	retlw	119	;'w'
   461  044D  346F               	retlw	111	;'o'
   462  044E  3472               	retlw	114	;'r'
   463  044F  3464               	retlw	100	;'d'
   464  0450  3420               	retlw	32	;' '
   465  0451  346D               	retlw	109	;'m'
   466  0452  3469               	retlw	105	;'i'
   467  0453  3473               	retlw	115	;'s'
   468  0454  346D               	retlw	109	;'m'
   469  0455  3461               	retlw	97	;'a'
   470  0456  3474               	retlw	116	;'t'
   471  0457  3463               	retlw	99	;'c'
   472  0458  3468               	retlw	104	;'h'
   473  0459  3400               	retlw	0
   474  045A                     STR_14:	
   475  045A  344F               	retlw	79	;'O'
   476  045B  3454               	retlw	84	;'T'
   477  045C  3450               	retlw	80	;'P'
   478  045D  3420               	retlw	32	;' '
   479  045E  3453               	retlw	83	;'S'
   480  045F  3465               	retlw	101	;'e'
   481  0460  346E               	retlw	110	;'n'
   482  0461  3464               	retlw	100	;'d'
   483  0462  3469               	retlw	105	;'i'
   484  0463  346E               	retlw	110	;'n'
   485  0464  3467               	retlw	103	;'g'
   486  0465  342E               	retlw	46	;'.'
   487  0466  342E               	retlw	46	;'.'
   488  0467  342E               	retlw	46	;'.'
   489  0468  3400               	retlw	0
   490  0469                     STR_3:	
   491  0469  3450               	retlw	80	;'P'
   492  046A  346C               	retlw	108	;'l'
   493  046B  3465               	retlw	101	;'e'
   494  046C  3461               	retlw	97	;'a'
   495  046D  3473               	retlw	115	;'s'
   496  046E  3465               	retlw	101	;'e'
   497  046F  3420               	retlw	32	;' '
   498  0470  3477               	retlw	119	;'w'
   499  0471  3461               	retlw	97	;'a'
   500  0472  3469               	retlw	105	;'i'
   501  0473  3474               	retlw	116	;'t'
   502  0474  342E               	retlw	46	;'.'
   503  0475  342E               	retlw	46	;'.'
   504  0476  342E               	retlw	46	;'.'
   505  0477  3400               	retlw	0
   506  0478                     STR_6:	
   507  0478  3445               	retlw	69	;'E'
   508  0479  346E               	retlw	110	;'n'
   509  047A  3474               	retlw	116	;'t'
   510  047B  3465               	retlw	101	;'e'
   511  047C  3472               	retlw	114	;'r'
   512  047D  3420               	retlw	32	;' '
   513  047E  3479               	retlw	121	;'y'
   514  047F  346F               	retlw	111	;'o'
   515  0480  3475               	retlw	117	;'u'
   516  0481  3472               	retlw	114	;'r'
   517  0482  3420               	retlw	32	;' '
   518  0483  344F               	retlw	79	;'O'
   519  0484  3454               	retlw	84	;'T'
   520  0485  3450               	retlw	80	;'P'
   521  0486  3400               	retlw	0
   522  0487                     STR_5:	
   523  0487  3453               	retlw	83	;'S'
   524  0488  3468               	retlw	104	;'h'
   525  0489  346F               	retlw	111	;'o'
   526  048A  3477               	retlw	119	;'w'
   527  048B  3420               	retlw	32	;' '
   528  048C  3479               	retlw	121	;'y'
   529  048D  346F               	retlw	111	;'o'
   530  048E  3475               	retlw	117	;'u'
   531  048F  3472               	retlw	114	;'r'
   532  0490  3420               	retlw	32	;' '
   533  0491  3463               	retlw	99	;'c'
   534  0492  3461               	retlw	97	;'a'
   535  0493  3472               	retlw	114	;'r'
   536  0494  3464               	retlw	100	;'d'
   537  0495  3400               	retlw	0
   538  0496                     STR_7:	
   539  0496  3450               	retlw	80	;'P'
   540  0497  3461               	retlw	97	;'a'
   541  0498  3473               	retlw	115	;'s'
   542  0499  3473               	retlw	115	;'s'
   543  049A  3477               	retlw	119	;'w'
   544  049B  346F               	retlw	111	;'o'
   545  049C  3472               	retlw	114	;'r'
   546  049D  3464               	retlw	100	;'d'
   547  049E  3420               	retlw	32	;' '
   548  049F  344D               	retlw	77	;'M'
   549  04A0  3461               	retlw	97	;'a'
   550  04A1  3474               	retlw	116	;'t'
   551  04A2  3463               	retlw	99	;'c'
   552  04A3  3468               	retlw	104	;'h'
   553  04A4  3400               	retlw	0
   554  04A5                     STR_8:	
   555  04A5  3455               	retlw	85	;'U'
   556  04A6  346E               	retlw	110	;'n'
   557  04A7  346C               	retlw	108	;'l'
   558  04A8  346F               	retlw	111	;'o'
   559  04A9  3463               	retlw	99	;'c'
   560  04AA  346B               	retlw	107	;'k'
   561  04AB  3465               	retlw	101	;'e'
   562  04AC  3464               	retlw	100	;'d'
   563  04AD  342E               	retlw	46	;'.'
   564  04AE  342E               	retlw	46	;'.'
   565  04AF  342E               	retlw	46	;'.'
   566  04B0  3400               	retlw	0
   567  04B1                     STR_12:	
   568  04B1  3439               	retlw	57	;'9'
   569  04B2  3434               	retlw	52	;'4'
   570  04B3  3439               	retlw	57	;'9'
   571  04B4  3436               	retlw	54	;'6'
   572  04B5  3439               	retlw	57	;'9'
   573  04B6  3437               	retlw	55	;'7'
   574  04B7  3432               	retlw	50	;'2'
   575  04B8  3431               	retlw	49	;'1'
   576  04B9  3433               	retlw	51	;'3'
   577  04BA  3430               	retlw	48	;'0'
   578  04BB  3400               	retlw	0
   579  04BC                     STR_18:	
   580  04BC  3457               	retlw	87	;'W'
   581  04BD  3472               	retlw	114	;'r'
   582  04BE  346F               	retlw	111	;'o'
   583  04BF  346E               	retlw	110	;'n'
   584  04C0  3467               	retlw	103	;'g'
   585  04C1  3420               	retlw	32	;' '
   586  04C2  3475               	retlw	117	;'u'
   587  04C3  3473               	retlw	115	;'s'
   588  04C4  3465               	retlw	101	;'e'
   589  04C5  3472               	retlw	114	;'r'
   590  04C6  3400               	retlw	0
   591  04C7                     STR_1:	
   592  04C7  3441               	retlw	65	;'A'
   593  04C8  3454               	retlw	84	;'T'
   594  04C9  342B               	retlw	43	;'+'
   595  04CA  3443               	retlw	67	;'C'
   596  04CB  344D               	retlw	77	;'M'
   597  04CC  3447               	retlw	71	;'G'
   598  04CD  3453               	retlw	83	;'S'
   599  04CE  343D               	retlw	61	;'='
   600  04CF  3422               	retlw	34	;'"'
   601  04D0  3400               	retlw	0
   602  04D1                     STR_10:	
   603  04D1  3453               	retlw	83	;'S'
   604  04D2  346F               	retlw	111	;'o'
   605  04D3  3472               	retlw	114	;'r'
   606  04D4  3472               	retlw	114	;'r'
   607  04D5  3479               	retlw	121	;'y'
   608  04D6  342E               	retlw	46	;'.'
   609  04D7  342E               	retlw	46	;'.'
   610  04D8  342E               	retlw	46	;'.'
   611  04D9  3400               	retlw	0
   612  04DA                     STR_4:	
   613  04DA  3420               	retlw	32	;' '
   614  04DB  3457               	retlw	87	;'W'
   615  04DC  3445               	retlw	69	;'E'
   616  04DD  344C               	retlw	76	;'L'
   617  04DE  3443               	retlw	67	;'C'
   618  04DF  344F               	retlw	79	;'O'
   619  04E0  344D               	retlw	77	;'M'
   620  04E1  3445               	retlw	69	;'E'
   621  04E2  3400               	retlw	0
   622  04CF                     
   623                           ; #config settings
   624  0000                     
   625                           	psect	cinit
   626  0015                     start_initialization:	
   627  0015                     __initialization:	
   628                           
   629                           ; Initialize objects allocated to BANK3
   630  0015  1783               	bsf	3,7	;select IRP bank2
   631  0016  30DA               	movlw	low (__pdataBANK3+34)
   632  0017  00FD               	movwf	btemp+-1
   633  0018  300E               	movlw	high __pidataBANK3
   634  0019  00FE               	movwf	btemp
   635  001A  3041               	movlw	low __pidataBANK3
   636  001B  00FF               	movwf	btemp+1
   637  001C  30B8               	movlw	low __pdataBANK3
   638  001D  0084               	movwf	4
   639  001E  120A  158A  24DD  120A  118A  	fcall	init_ram0
   640                           
   641                           ; Initialize objects allocated to BANK2
   642  0023  3028               	movlw	low (__pdataBANK2+24)
   643  0024  00FD               	movwf	btemp+-1
   644  0025  300D               	movlw	high __pidataBANK2
   645  0026  00FE               	movwf	btemp
   646  0027  3040               	movlw	low __pidataBANK2
   647  0028  00FF               	movwf	btemp+1
   648  0029  3010               	movlw	low __pdataBANK2
   649  002A  0084               	movwf	4
   650  002B  120A  158A  24DD  120A  118A  	fcall	init_ram0
   651                           
   652                           ; Initialize objects allocated to BANK1
   653  0030  1383               	bcf	3,7	;select IRP bank0
   654  0031  30EA               	movlw	low (__pdataBANK1+21)
   655  0032  00FD               	movwf	btemp+-1
   656  0033  300C               	movlw	high __pidataBANK1
   657  0034  00FE               	movwf	btemp
   658  0035  30FD               	movlw	low __pidataBANK1
   659  0036  00FF               	movwf	btemp+1
   660  0037  30D5               	movlw	low __pdataBANK1
   661  0038  0084               	movwf	4
   662  0039  120A  158A  24DD  120A  118A  	fcall	init_ram0
   663                           
   664                           ; Initialize objects allocated to BANK0
   665  003E  3041               	movlw	low (__pdataBANK0+33)
   666  003F  00FD               	movwf	btemp+-1
   667  0040  300D               	movlw	high __pidataBANK0
   668  0041  00FE               	movwf	btemp
   669  0042  30FE               	movlw	low __pidataBANK0
   670  0043  00FF               	movwf	btemp+1
   671  0044  3020               	movlw	low __pdataBANK0
   672  0045  0084               	movwf	4
   673  0046  120A  158A  24DD  120A  118A  	fcall	init_ram0
   674                           
   675                           ; Clear objects allocated to BANK3
   676  004B  1783               	bsf	3,7	;select IRP bank2
   677  004C  3090               	movlw	low __pbssBANK3
   678  004D  0084               	movwf	4
   679  004E  30B8               	movlw	low (__pbssBANK3+40)
   680  004F  120A  158A  24C6  120A  118A  	fcall	clear_ram0
   681                           
   682                           ; Clear objects allocated to BANK1
   683  0054  1383               	bcf	3,7	;select IRP bank0
   684  0055  30A0               	movlw	low __pbssBANK1
   685  0056  0084               	movwf	4
   686  0057  30D5               	movlw	low (__pbssBANK1+53)
   687  0058  120A  158A  24C6  120A  118A  	fcall	clear_ram0
   688                           
   689                           ; Clear objects allocated to BANK0
   690  005D  3041               	movlw	low __pbssBANK0
   691  005E  0084               	movwf	4
   692  005F  3054               	movlw	low (__pbssBANK0+19)
   693  0060  120A  158A  24C6   	fcall	clear_ram0
   694                           
   695                           ; Clear objects allocated to COMMON
   696  0063  01FD               	clrf	__pbssCOMMON& (0+127)
   697  0064                     end_of_initialization:	
   698                           ;End of C runtime variable initialization code
   699                           
   700  0064                     __end_of__initialization:	
   701  0064  0183               	clrf	3
   702  0065  120A  118A  2868   	ljmp	_main	;jump to C main() function
   703                           
   704                           	psect	bssCOMMON
   705  007D                     __pbssCOMMON:	
   706  007D                     _a:	
   707  007D                     	ds	1
   708                           
   709                           	psect	bssBANK0
   710  0041                     __pbssBANK0:	
   711  0041                     _t4:	
   712  0041                     	ds	2
   713  0043                     _t3:	
   714  0043                     	ds	2
   715  0045                     _i:	
   716  0045                     	ds	2
   717  0047                     _j:	
   718  0047                     	ds	2
   719  0049                     _k:	
   720  0049                     	ds	2
   721  004B                     _r:	
   722  004B                     	ds	2
   723  004D                     _c:	
   724  004D                     	ds	2
   725  004F                     _x:	
   726  004F                     	ds	1
   727  0050                     _freq:	
   728  0050                     	ds	4
   729                           
   730                           	psect	dataBANK0
   731  0020                     __pdataBANK0:	
   732  0020                     _mesg:	
   733  0020                     	ds	6
   734  0026                     _t2:	
   735  0026                     	ds	2
   736  0028                     _t:	
   737  0028                     	ds	2
   738  002A                     _c1:	
   739  002A                     	ds	5
   740  002F                     _b:	
   741  002F                     	ds	5
   742  0034                     _a1:	
   743  0034                     	ds	5
   744  0039                     _noecho:	
   745  0039                     	ds	5
   746  003E                     _AT:	
   747  003E                     	ds	3
   748                           
   749                           	psect	bssBANK1
   750  00A0                     __pbssBANK1:	
   751  00A0                     _rfid:	
   752  00A0                     	ds	13
   753  00AD                     _d2:	
   754  00AD                     	ds	10
   755  00B7                     _d1:	
   756  00B7                     	ds	10
   757  00C1                     _z:	
   758  00C1                     	ds	10
   759  00CB                     _temp:	
   760  00CB                     	ds	10
   761                           
   762                           	psect	dataBANK1
   763  00D5                     __pdataBANK1:	
   764  00D5                     _rf1:	
   765  00D5                     	ds	11
   766  00E0                     _mode_text:	
   767  00E0                     	ds	10
   768                           
   769                           	psect	bssBANK3
   770  0190                     __pbssBANK3:	
   771  0190                     _e:	
   772  0190                     	ds	20
   773  01A4                     _d:	
   774  01A4                     	ds	20
   775                           
   776                           	psect	dataBANK3
   777  01B8                     __pdataBANK3:	
   778  01B8                     _param:	
   779  01B8                     	ds	19
   780  01CB                     _char_mode:	
   781  01CB                     	ds	15
   782                           
   783                           	psect	dataBANK2
   784  0110                     __pdataBANK2:	
   785  0110                     _mobile_no:	
   786  0110                     	ds	24
   787                           
   788                           	psect	inittext
   789  0CD9                     init_fetch0:	
   790                           ;	Called with low address in FSR and high address in W
   791                           
   792  0CD9  087E               	movf	126,w
   793  0CDA  008A               	movwf	10
   794  0CDB  087F               	movf	127,w
   795  0CDC  0082               	movwf	2
   796  0CDD                     init_ram0:	
   797                           ;Called with:
   798                           ;	high address of idata address in btemp 
   799                           ;	low address of idata address in btemp+1 
   800                           ;	low address of data in FSR
   801                           ;	high address + 1 of data in btemp-1
   802                           
   803  0CDD  24D9  120A  158A   	fcall	init_fetch0
   804  0CE0  0080               	movwf	0
   805  0CE1  0A84               	incf	4,f
   806  0CE2  0804               	movf	4,w
   807  0CE3  067D               	xorwf	125,w
   808  0CE4  1903               	btfsc	3,2
   809  0CE5  3400               	retlw	0
   810  0CE6  0AFF               	incf	127,f
   811  0CE7  1903               	btfsc	3,2
   812  0CE8  0AFE               	incf	126,f
   813  0CE9  2CDD               	goto	init_ram0
   814                           
   815                           	psect	clrtext
   816  0CC6                     clear_ram0:	
   817                           ;	Called with FSR containing the base address, and
   818                           ;	W with the last address+1
   819                           
   820  0CC6  0064               	clrwdt	;clear the watchdog before getting into this loop
   821  0CC7                     clrloop0:	
   822  0CC7  0180               	clrf	0	;clear RAM location pointed to by FSR
   823  0CC8  0A84               	incf	4,f	;increment pointer
   824  0CC9  0604               	xorwf	4,w	;XOR with final address
   825  0CCA  1903               	btfsc	3,2	;have we reached the end yet?
   826  0CCB  3400               	retlw	0	;all done for this memory range, return
   827  0CCC  0604               	xorwf	4,w	;XOR again to restore value
   828  0CCD  2CC7               	goto	clrloop0	;do the next byte
   829                           
   830                           	psect	cstackBANK3
   831  01DA                     __pcstackBANK3:	
   832  01DA                     ??_main:	
   833                           
   834                           ; 1 bytes @ 0x0
   835  01DA                     	ds	3
   836                           
   837                           	psect	cstackBANK1
   838  00EA                     __pcstackBANK1:	
   839  00EA                     Lcd_Set_Cursor@a:	
   840  00EA                     UART_Send@i:	
   841                           ; 1 bytes @ 0x0
   842                           
   843  00EA                     readKeyboard@i:	
   844                           ; 2 bytes @ 0x0
   845                           
   846                           
   847                           ; 2 bytes @ 0x0
   848  00EA                     	ds	1
   849  00EB                     Lcd_Set_Cursor@z:	
   850                           
   851                           ; 1 bytes @ 0x1
   852  00EB                     	ds	1
   853  00EC                     ??_GSM_Init:	
   854  00EC                     Lcd_Set_Cursor@y:	
   855                           ; 1 bytes @ 0x2
   856                           
   857                           
   858                           ; 1 bytes @ 0x2
   859  00EC                     	ds	1
   860  00ED                     Lcd_Set_Cursor@temp:	
   861                           
   862                           ; 1 bytes @ 0x3
   863  00ED                     	ds	2
   864                           
   865                           	psect	cstackCOMMON
   866  0070                     __pcstackCOMMON:	
   867  0070                     ?_strcpy:	
   868  0070                     ?_UART_Init:	
   869                           ; 1 bytes @ 0x0
   870                           
   871  0070                     ?_UART_Write:	
   872                           ; 1 bytes @ 0x0
   873                           
   874  0070                     ?_UART_Data_Ready:	
   875                           ; 1 bytes @ 0x0
   876                           
   877  0070                     ??_UART_Data_Ready:	
   878                           ; 1 bytes @ 0x0
   879                           
   880  0070                     ?_UART_Read:	
   881                           ; 1 bytes @ 0x0
   882                           
   883  0070                     ??_UART_Read:	
   884                           ; 1 bytes @ 0x0
   885                           
   886  0070                     ?_GSM_Init:	
   887                           ; 1 bytes @ 0x0
   888                           
   889  0070                     ?_Lcd_Port:	
   890                           ; 1 bytes @ 0x0
   891                           
   892  0070                     ?_Lcd_Cmd:	
   893                           ; 1 bytes @ 0x0
   894                           
   895  0070                     ?_Lcd_Init:	
   896                           ; 1 bytes @ 0x0
   897                           
   898  0070                     ?_Lcd_Write_Char:	
   899                           ; 1 bytes @ 0x0
   900                           
   901  0070                     ?_Lcd_Write_String:	
   902                           ; 1 bytes @ 0x0
   903                           
   904  0070                     ?_readKeyboard:	
   905                           ; 1 bytes @ 0x0
   906                           
   907  0070                     ?_main:	
   908                           ; 1 bytes @ 0x0
   909                           
   910  0070                     ?_ISR:	
   911                           ; 1 bytes @ 0x0
   912                           
   913  0070                     ?i1_UART_Init:	
   914                           ; 1 bytes @ 0x0
   915                           
   916  0070                     ??i1_UART_Init:	
   917                           ; 1 bytes @ 0x0
   918                           
   919  0070                     ?i1_UART_Write:	
   920                           ; 1 bytes @ 0x0
   921                           
   922  0070                     ??i1_UART_Write:	
   923                           ; 1 bytes @ 0x0
   924                           
   925  0070                     ?i1_Lcd_Port:	
   926                           ; 1 bytes @ 0x0
   927                           
   928  0070                     ??i1_Lcd_Port:	
   929                           ; 1 bytes @ 0x0
   930                           
   931  0070                     ?i1_Lcd_Cmd:	
   932                           ; 1 bytes @ 0x0
   933                           
   934  0070                     ?i1_Lcd_Write_Char:	
   935                           ; 1 bytes @ 0x0
   936                           
   937  0070                     ?i1_Lcd_Write_String:	
   938                           ; 1 bytes @ 0x0
   939                           
   940  0070                     ?_Lcd_Clear:	
   941                           ; 1 bytes @ 0x0
   942                           
   943  0070                     ?i1_Lcd_Clear:	
   944                           ; 2 bytes @ 0x0
   945                           
   946  0070                     strcpy@from:	
   947                           ; 2 bytes @ 0x0
   948                           
   949  0070                     i1Lcd_Port@a:	
   950                           ; 1 bytes @ 0x0
   951                           
   952                           
   953                           ; 1 bytes @ 0x0
   954  0070                     	ds	1
   955  0071                     ??_strcpy:	
   956  0071                     ??i1_Lcd_Cmd:	
   957                           ; 1 bytes @ 0x1
   958                           
   959  0071                     ??i1_Lcd_Write_Char:	
   960                           ; 1 bytes @ 0x1
   961                           
   962                           
   963                           ; 1 bytes @ 0x1
   964  0071                     	ds	1
   965  0072                     strcpy@cp:	
   966  0072                     i1UART_Write@data:	
   967                           ; 1 bytes @ 0x2
   968                           
   969  0072                     i1Lcd_Write_Char@temp:	
   970                           ; 1 bytes @ 0x2
   971                           
   972                           
   973                           ; 1 bytes @ 0x2
   974  0072                     	ds	1
   975  0073                     ?i1_UART_Send:	
   976  0073                     strcpy@to:	
   977                           ; 1 bytes @ 0x3
   978                           
   979  0073                     i1Lcd_Cmd@a:	
   980                           ; 1 bytes @ 0x3
   981                           
   982  0073                     i1Lcd_Write_Char@y:	
   983                           ; 1 bytes @ 0x3
   984                           
   985  0073                     i1UART_Send@s:	
   986                           ; 1 bytes @ 0x3
   987                           
   988                           
   989                           ; 2 bytes @ 0x3
   990  0073                     	ds	1
   991  0074                     ??i1_Lcd_Clear:	
   992  0074                     ?i1_Lcd_Set_Cursor:	
   993                           ; 1 bytes @ 0x4
   994                           
   995  0074                     i1Lcd_Set_Cursor@b:	
   996                           ; 1 bytes @ 0x4
   997                           
   998  0074                     i1Lcd_Write_Char@a:	
   999                           ; 1 bytes @ 0x4
  1000                           
  1001                           
  1002                           ; 1 bytes @ 0x4
  1003  0074                     	ds	1
  1004  0075                     ??i1_UART_Send:	
  1005  0075                     ??i1_Lcd_Set_Cursor:	
  1006                           ; 1 bytes @ 0x5
  1007                           
  1008  0075                     ??i1_Lcd_Write_String:	
  1009                           ; 1 bytes @ 0x5
  1010                           
  1011  0075                     i1Lcd_Write_String@a:	
  1012                           ; 1 bytes @ 0x5
  1013                           
  1014                           
  1015                           ; 1 bytes @ 0x5
  1016  0075                     	ds	1
  1017  0076                     i1Lcd_Write_String@i:	
  1018                           
  1019                           ; 2 bytes @ 0x6
  1020  0076                     	ds	1
  1021  0077                     i1Lcd_Set_Cursor@a:	
  1022                           
  1023                           ; 1 bytes @ 0x7
  1024  0077                     	ds	1
  1025  0078                     i1Lcd_Set_Cursor@z:	
  1026  0078                     i1UART_Send@i:	
  1027                           ; 1 bytes @ 0x8
  1028                           
  1029                           
  1030                           ; 2 bytes @ 0x8
  1031  0078                     	ds	1
  1032  0079                     i1Lcd_Set_Cursor@y:	
  1033                           
  1034                           ; 1 bytes @ 0x9
  1035  0079                     	ds	1
  1036  007A                     ?_GSM_Send:	
  1037  007A                     i1Lcd_Set_Cursor@temp:	
  1038                           ; 1 bytes @ 0xA
  1039                           
  1040  007A                     GSM_Send@m:	
  1041                           ; 1 bytes @ 0xA
  1042                           
  1043                           
  1044                           ; 2 bytes @ 0xA
  1045  007A                     	ds	2
  1046  007C                     GSM_Send@n:	
  1047                           
  1048                           ; 1 bytes @ 0xC
  1049  007C                     	ds	1
  1050                           
  1051                           	psect	cstackBANK0
  1052  0054                     __pcstackBANK0:	
  1053  0054                     ??_GSM_Send:	
  1054                           
  1055                           ; 1 bytes @ 0x0
  1056  0054                     	ds	3
  1057  0057                     ??_ISR:	
  1058                           
  1059                           ; 1 bytes @ 0x3
  1060  0057                     	ds	7
  1061  005E                     ??_UART_Init:	
  1062  005E                     ??_UART_Write:	
  1063                           ; 1 bytes @ 0xA
  1064                           
  1065  005E                     ??_Lcd_Port:	
  1066                           ; 1 bytes @ 0xA
  1067                           
  1068  005E                     ?_findKey:	
  1069                           ; 1 bytes @ 0xA
  1070                           
  1071  005E                     ?_strcmp:	
  1072                           ; 1 bytes @ 0xA
  1073                           
  1074  005E                     Lcd_Port@a:	
  1075                           ; 2 bytes @ 0xA
  1076                           
  1077  005E                     strcmp@s2:	
  1078                           ; 1 bytes @ 0xA
  1079                           
  1080  005E                     findKey@a:	
  1081                           ; 1 bytes @ 0xA
  1082                           
  1083                           
  1084                           ; 2 bytes @ 0xA
  1085  005E                     	ds	1
  1086  005F                     ??_Lcd_Cmd:	
  1087  005F                     ??_Lcd_Write_Char:	
  1088                           ; 1 bytes @ 0xB
  1089                           
  1090                           
  1091                           ; 1 bytes @ 0xB
  1092  005F                     	ds	1
  1093  0060                     ??_strcmp:	
  1094  0060                     UART_Write@data:	
  1095                           ; 1 bytes @ 0xC
  1096                           
  1097  0060                     Lcd_Write_Char@temp:	
  1098                           ; 1 bytes @ 0xC
  1099                           
  1100  0060                     findKey@b:	
  1101                           ; 1 bytes @ 0xC
  1102                           
  1103                           
  1104                           ; 2 bytes @ 0xC
  1105  0060                     	ds	1
  1106  0061                     ?_UART_Send:	
  1107  0061                     Lcd_Cmd@a:	
  1108                           ; 1 bytes @ 0xD
  1109                           
  1110  0061                     Lcd_Write_Char@y:	
  1111                           ; 1 bytes @ 0xD
  1112                           
  1113  0061                     UART_Send@s:	
  1114                           ; 1 bytes @ 0xD
  1115                           
  1116                           
  1117                           ; 2 bytes @ 0xD
  1118  0061                     	ds	1
  1119  0062                     ??_Lcd_Clear:	
  1120  0062                     ?_Lcd_Set_Cursor:	
  1121                           ; 1 bytes @ 0xE
  1122                           
  1123  0062                     ??_Lcd_Init:	
  1124                           ; 1 bytes @ 0xE
  1125                           
  1126  0062                     ??_findKey:	
  1127                           ; 1 bytes @ 0xE
  1128                           
  1129  0062                     ??_readKeyboard:	
  1130                           ; 1 bytes @ 0xE
  1131                           
  1132  0062                     Lcd_Set_Cursor@b:	
  1133                           ; 1 bytes @ 0xE
  1134                           
  1135  0062                     Lcd_Write_Char@a:	
  1136                           ; 1 bytes @ 0xE
  1137                           
  1138  0062                     strcmp@r:	
  1139                           ; 1 bytes @ 0xE
  1140                           
  1141                           
  1142                           ; 1 bytes @ 0xE
  1143  0062                     	ds	1
  1144  0063                     ??_UART_Send:	
  1145  0063                     ??_Lcd_Set_Cursor:	
  1146                           ; 1 bytes @ 0xF
  1147                           
  1148  0063                     ??_Lcd_Write_String:	
  1149                           ; 1 bytes @ 0xF
  1150                           
  1151  0063                     strcmp@s1:	
  1152                           ; 1 bytes @ 0xF
  1153                           
  1154  0063                     Lcd_Write_String@i:	
  1155                           ; 1 bytes @ 0xF
  1156                           
  1157                           
  1158                           ; 2 bytes @ 0xF
  1159  0063                     	ds	2
  1160  0065                     Lcd_Write_String@a:	
  1161                           
  1162                           ; 1 bytes @ 0x11
  1163  0065                     	ds	1
  1164                           
  1165                           	psect	maintext
  1166  0068                     __pmaintext:	
  1167 ;;
  1168 ;;Main: autosize = 0, tempsize = 3, incstack = 0, save=0
  1169 ;;
  1170 ;; *************** function _main *****************
  1171 ;; Defined at:
  1172 ;;		line 34 in file "keypad.c"
  1173 ;; Parameters:    Size  Location     Type
  1174 ;;		None
  1175 ;; Auto vars:     Size  Location     Type
  1176 ;;		None
  1177 ;; Return value:  Size  Location     Type
  1178 ;;                  1    wreg      void 
  1179 ;; Registers used:
  1180 ;;		wreg, fsr0l, fsr0h, status,2, status,0, btemp+1, pclath, cstack
  1181 ;; Tracked objects:
  1182 ;;		On entry : B00/0
  1183 ;;		On exit  : 0/0
  1184 ;;		Unchanged: 0/0
  1185 ;; Data sizes:     COMMON   BANK0   BANK1   BANK3   BANK2
  1186 ;;      Params:         0       0       0       0       0
  1187 ;;      Locals:         0       0       0       0       0
  1188 ;;      Temps:          0       0       0       3       0
  1189 ;;      Totals:         0       0       0       3       0
  1190 ;;Total ram usage:        3 bytes
  1191 ;; Hardware stack levels required when called:    7
  1192 ;; This function calls:
  1193 ;;		_GSM_Init
  1194 ;;		_Lcd_Clear
  1195 ;;		_Lcd_Init
  1196 ;;		_Lcd_Set_Cursor
  1197 ;;		_Lcd_Write_Char
  1198 ;;		_Lcd_Write_String
  1199 ;;		_UART_Init
  1200 ;;		_readKeyboard
  1201 ;;		_strcmp
  1202 ;; This function is called by:
  1203 ;;		Startup code after reset
  1204 ;; This function uses a non-reentrant model
  1205 ;;
  1206                           
  1207                           
  1208                           ;psect for function _main
  1209  0068                     _main:	
  1210                           
  1211                           ;keypad.c: 37: TRISD=0X00;
  1212                           
  1213                           ;incstack = 0
  1214                           ; Regs used in _main: [wreg-fsr0h+status,2+status,0+btemp+1+pclath+cstack]
  1215  0068  1683               	bsf	3,5	;RP0=1, select bank1
  1216  0069  1303               	bcf	3,6	;RP1=0, select bank1
  1217  006A  0188               	clrf	8	;volatile
  1218                           
  1219                           ;keypad.c: 38: PORTD=0X00;
  1220  006B  1283               	bcf	3,5	;RP0=0, select bank0
  1221  006C  1303               	bcf	3,6	;RP1=0, select bank0
  1222  006D  0188               	clrf	8	;volatile
  1223                           
  1224                           ;keypad.c: 39: TRISC0=TRISC2=TRISC1=TRISC3=0;
  1225  006E  1683               	bsf	3,5	;RP0=1, select bank1
  1226  006F  1303               	bcf	3,6	;RP1=0, select bank1
  1227  0070  1187               	bcf	7,3	;volatile
  1228  0071  1087               	bcf	7,1	;volatile
  1229  0072  1107               	bcf	7,2	;volatile
  1230  0073  1007               	bcf	7,0	;volatile
  1231                           
  1232                           ;keypad.c: 40: RC0=RC1=RC2=RC3=0;
  1233  0074  1283               	bcf	3,5	;RP0=0, select bank0
  1234  0075  1303               	bcf	3,6	;RP1=0, select bank0
  1235  0076  1187               	bcf	7,3	;volatile
  1236  0077  1107               	bcf	7,2	;volatile
  1237  0078  1087               	bcf	7,1	;volatile
  1238  0079  1007               	bcf	7,0	;volatile
  1239                           
  1240                           ;keypad.c: 41: TRISB4=TRISB5=TRISB6=TRISB7=1;
  1241  007A  1683               	bsf	3,5	;RP0=1, select bank1
  1242  007B  1303               	bcf	3,6	;RP1=0, select bank1
  1243  007C  1786               	bsf	6,7	;volatile
  1244  007D  1F86               	btfss	6,7	;volatile
  1245  007E  2883               	goto	u2460
  1246  007F  1683               	bsf	3,5	;RP0=1, select bank1
  1247  0080  1303               	bcf	3,6	;RP1=0, select bank1
  1248  0081  1706               	bsf	6,6	;volatile
  1249  0082  2886               	goto	u2474
  1250  0083                     u2460:	
  1251  0083  1683               	bsf	3,5	;RP0=1, select bank1
  1252  0084  1303               	bcf	3,6	;RP1=0, select bank1
  1253  0085  1306               	bcf	6,6	;volatile
  1254  0086                     u2474:	
  1255  0086  1F06               	btfss	6,6	;volatile
  1256  0087  288C               	goto	u2470
  1257  0088  1683               	bsf	3,5	;RP0=1, select bank1
  1258  0089  1303               	bcf	3,6	;RP1=0, select bank1
  1259  008A  1686               	bsf	6,5	;volatile
  1260  008B  288F               	goto	u2484
  1261  008C                     u2470:	
  1262  008C  1683               	bsf	3,5	;RP0=1, select bank1
  1263  008D  1303               	bcf	3,6	;RP1=0, select bank1
  1264  008E  1286               	bcf	6,5	;volatile
  1265  008F                     u2484:	
  1266  008F  1E86               	btfss	6,5	;volatile
  1267  0090  2895               	goto	u2480
  1268  0091  1683               	bsf	3,5	;RP0=1, select bank1
  1269  0092  1303               	bcf	3,6	;RP1=0, select bank1
  1270  0093  1606               	bsf	6,4	;volatile
  1271  0094  2898               	goto	l2752
  1272  0095                     u2480:	
  1273  0095  1683               	bsf	3,5	;RP0=1, select bank1
  1274  0096  1303               	bcf	3,6	;RP1=0, select bank1
  1275  0097  1206               	bcf	6,4	;volatile
  1276  0098                     l2752:	
  1277                           
  1278                           ;keypad.c: 42: RB4=RB5=RB6=RB7=0;
  1279  0098  1283               	bcf	3,5	;RP0=0, select bank0
  1280  0099  1303               	bcf	3,6	;RP1=0, select bank0
  1281  009A  1386               	bcf	6,7	;volatile
  1282  009B  1306               	bcf	6,6	;volatile
  1283  009C  1286               	bcf	6,5	;volatile
  1284  009D  1206               	bcf	6,4	;volatile
  1285                           
  1286                           ;keypad.c: 43: TRISB2=TRISB3=0;
  1287  009E  1683               	bsf	3,5	;RP0=1, select bank1
  1288  009F  1303               	bcf	3,6	;RP1=0, select bank1
  1289  00A0  1186               	bcf	6,3	;volatile
  1290  00A1  1106               	bcf	6,2	;volatile
  1291                           
  1292                           ;keypad.c: 44: RB2=RB3=0;
  1293  00A2  1283               	bcf	3,5	;RP0=0, select bank0
  1294  00A3  1303               	bcf	3,6	;RP1=0, select bank0
  1295  00A4  1186               	bcf	6,3	;volatile
  1296  00A5  1106               	bcf	6,2	;volatile
  1297                           
  1298                           ;keypad.c: 45: GIE = 1;
  1299  00A6  178B               	bsf	11,7	;volatile
  1300                           
  1301                           ;keypad.c: 46: PEIE=1;
  1302  00A7  170B               	bsf	11,6	;volatile
  1303                           
  1304                           ;keypad.c: 47: INTEDG =0;
  1305  00A8  1683               	bsf	3,5	;RP0=1, select bank1
  1306  00A9  1303               	bcf	3,6	;RP1=0, select bank1
  1307  00AA  1301               	bcf	1,6	;volatile
  1308                           
  1309                           ;keypad.c: 48: RCIE=1;
  1310  00AB  168C               	bsf	12,5	;volatile
  1311                           
  1312                           ;keypad.c: 49: RCIF=0;
  1313  00AC  1283               	bcf	3,5	;RP0=0, select bank0
  1314  00AD  1303               	bcf	3,6	;RP1=0, select bank0
  1315  00AE  128C               	bcf	12,5	;volatile
  1316                           
  1317                           ;keypad.c: 50: INTE = 1;
  1318  00AF  160B               	bsf	11,4	;volatile
  1319                           
  1320                           ;keypad.c: 51: INTF=0;
  1321  00B0  108B               	bcf	11,1	;volatile
  1322                           
  1323                           ;keypad.c: 52: Lcd_Init();
  1324  00B1  120A  118A  2790  120A  118A  	fcall	_Lcd_Init
  1325                           
  1326                           ;keypad.c: 53: UART_Init();
  1327  00B6  120A  158A  25C4  120A  118A  	fcall	_UART_Init
  1328                           
  1329                           ;keypad.c: 54: Lcd_Clear();
  1330  00BB  120A  118A  27F1  120A  118A  	fcall	_Lcd_Clear
  1331                           
  1332                           ;keypad.c: 55: Lcd_Set_Cursor(1,1);
  1333  00C0  1283               	bcf	3,5	;RP0=0, select bank0
  1334  00C1  1303               	bcf	3,6	;RP1=0, select bank0
  1335  00C2  01E2               	clrf	Lcd_Set_Cursor@b
  1336  00C3  0AE2               	incf	Lcd_Set_Cursor@b,f
  1337  00C4  3001               	movlw	1
  1338  00C5  120A  118A  26C3  120A  118A  	fcall	_Lcd_Set_Cursor
  1339                           
  1340                           ;keypad.c: 56: Lcd_Write_String("Please wait...");
  1341  00CA  305A               	movlw	(low ((STR_3-__stringbase)| (0+32768)))& (0+255)
  1342  00CB  120A  158A  2663  120A  118A  	fcall	_Lcd_Write_String
  1343                           
  1344                           ;keypad.c: 57: _delay((unsigned long)((2000)*(20000000/4000.0)));
  1345  00D0  3033               	movlw	51
  1346  00D1  1683               	bsf	3,5	;RP0=1, select bank3
  1347  00D2  1703               	bsf	3,6	;RP1=1, select bank3
  1348  00D3  00DC               	movwf	(??_main^(0+384)+2)
  1349  00D4  30BB               	movlw	187
  1350  00D5  00DB               	movwf	(??_main^(0+384)+1)
  1351  00D6  30DF               	movlw	223
  1352  00D7  00DA               	movwf	??_main^(0+384)
  1353  00D8                     u2547:	
  1354  00D8  0BDA               	decfsz	??_main^(0+384),f
  1355  00D9  28D8               	goto	u2547
  1356  00DA  0BDB               	decfsz	(??_main^(0+384)+1),f
  1357  00DB  28D8               	goto	u2547
  1358  00DC  0BDC               	decfsz	(??_main^(0+384)+2),f
  1359  00DD  28D8               	goto	u2547
  1360                           
  1361                           ;keypad.c: 58: GSM_Init();
  1362  00DE  120A  118A  272D  120A  118A  	fcall	_GSM_Init
  1363                           
  1364                           ;keypad.c: 59: UART_Init();
  1365  00E3  120A  158A  25C4  120A  118A  	fcall	_UART_Init
  1366                           
  1367                           ;keypad.c: 60: Lcd_Clear();
  1368  00E8  120A  118A  27F1  120A  118A  	fcall	_Lcd_Clear
  1369                           
  1370                           ;keypad.c: 61: Lcd_Set_Cursor(1,4);
  1371  00ED  3004               	movlw	4
  1372  00EE  1683               	bsf	3,5	;RP0=1, select bank3
  1373  00EF  1703               	bsf	3,6	;RP1=1, select bank3
  1374  00F0  00DA               	movwf	??_main^(0+384)
  1375  00F1  085A               	movf	??_main^(0+384),w
  1376  00F2  1283               	bcf	3,5	;RP0=0, select bank0
  1377  00F3  1303               	bcf	3,6	;RP1=0, select bank0
  1378  00F4  00E2               	movwf	Lcd_Set_Cursor@b
  1379  00F5  3001               	movlw	1
  1380  00F6  120A  118A  26C3  120A  118A  	fcall	_Lcd_Set_Cursor
  1381                           
  1382                           ;keypad.c: 62: Lcd_Write_String(" WELCOME");
  1383  00FB  30CB               	movlw	(low ((STR_4-__stringbase)| (0+32768)))& (0+255)
  1384  00FC  120A  158A  2663  120A  118A  	fcall	_Lcd_Write_String
  1385                           
  1386                           ;keypad.c: 63: _delay((unsigned long)((2000)*(20000000/4000.0)));
  1387  0101  3033               	movlw	51
  1388  0102  1683               	bsf	3,5	;RP0=1, select bank3
  1389  0103  1703               	bsf	3,6	;RP1=1, select bank3
  1390  0104  00DC               	movwf	(??_main^(0+384)+2)
  1391  0105  30BB               	movlw	187
  1392  0106  00DB               	movwf	(??_main^(0+384)+1)
  1393  0107  30DF               	movlw	223
  1394  0108  00DA               	movwf	??_main^(0+384)
  1395  0109                     u2557:	
  1396  0109  0BDA               	decfsz	??_main^(0+384),f
  1397  010A  2909               	goto	u2557
  1398  010B  0BDB               	decfsz	(??_main^(0+384)+1),f
  1399  010C  2909               	goto	u2557
  1400  010D  0BDC               	decfsz	(??_main^(0+384)+2),f
  1401  010E  2909               	goto	u2557
  1402                           
  1403                           ;keypad.c: 64: rfid[12] = '\0';
  1404  010F  1683               	bsf	3,5	;RP0=1, select bank1
  1405  0110  1303               	bcf	3,6	;RP1=0, select bank1
  1406  0111  01AC               	clrf	(_rfid^(0+128)+12)
  1407  0112                     l2798:	
  1408                           ;keypad.c: 67: {
  1409                           ;keypad.c: 68: s:
  1410                           
  1411                           ;keypad.c: 66: while(1)
  1412                           
  1413                           
  1414                           ;keypad.c: 69: Lcd_Clear();
  1415  0112  120A  118A  27F1  120A  118A  	fcall	_Lcd_Clear
  1416                           
  1417                           ;keypad.c: 70: Lcd_Set_Cursor(1,1);
  1418  0117  1283               	bcf	3,5	;RP0=0, select bank0
  1419  0118  1303               	bcf	3,6	;RP1=0, select bank0
  1420  0119  01E2               	clrf	Lcd_Set_Cursor@b
  1421  011A  0AE2               	incf	Lcd_Set_Cursor@b,f
  1422  011B  3001               	movlw	1
  1423  011C  120A  118A  26C3  120A  118A  	fcall	_Lcd_Set_Cursor
  1424                           
  1425                           ;keypad.c: 71: Lcd_Write_String("Show your card");
  1426  0121  3078               	movlw	(low ((STR_5-__stringbase)| (0+32768)))& (0+255)
  1427  0122  120A  158A  2663  120A  118A  	fcall	_Lcd_Write_String
  1428                           
  1429                           ;keypad.c: 72: _delay((unsigned long)((500)*(20000000/4000.0)));
  1430  0127  300D               	movlw	13
  1431  0128  1683               	bsf	3,5	;RP0=1, select bank3
  1432  0129  1703               	bsf	3,6	;RP1=1, select bank3
  1433  012A  00DC               	movwf	(??_main^(0+384)+2)
  1434  012B  30AF               	movlw	175
  1435  012C  00DB               	movwf	(??_main^(0+384)+1)
  1436  012D  30B5               	movlw	181
  1437  012E  00DA               	movwf	??_main^(0+384)
  1438  012F                     u2567:	
  1439  012F  0BDA               	decfsz	??_main^(0+384),f
  1440  0130  292F               	goto	u2567
  1441  0131  0BDB               	decfsz	(??_main^(0+384)+1),f
  1442  0132  292F               	goto	u2567
  1443  0133  0BDC               	decfsz	(??_main^(0+384)+2),f
  1444  0134  292F               	goto	u2567
  1445  0135  2936               	nop2
  1446                           
  1447                           ;keypad.c: 73: if(j!=0)
  1448  0136  1283               	bcf	3,5	;RP0=0, select bank0
  1449  0137  1303               	bcf	3,6	;RP1=0, select bank0
  1450  0138  0847               	movf	_j,w
  1451  0139  0448               	iorwf	_j+1,w
  1452  013A  1903               	btfsc	3,2
  1453  013B  2912               	goto	l2798
  1454                           
  1455                           ;keypad.c: 74: {
  1456                           ;keypad.c: 75: Lcd_Clear();
  1457  013C  120A  118A  27F1  120A  118A  	fcall	_Lcd_Clear
  1458                           
  1459                           ;keypad.c: 76: Lcd_Set_Cursor(1,1);
  1460  0141  1283               	bcf	3,5	;RP0=0, select bank0
  1461  0142  1303               	bcf	3,6	;RP1=0, select bank0
  1462  0143  01E2               	clrf	Lcd_Set_Cursor@b
  1463  0144  0AE2               	incf	Lcd_Set_Cursor@b,f
  1464  0145  3001               	movlw	1
  1465  0146  120A  118A  26C3  120A  118A  	fcall	_Lcd_Set_Cursor
  1466                           
  1467                           ;keypad.c: 77: Lcd_Write_String("Enter your OTP");
  1468  014B  3069               	movlw	(low ((STR_6-__stringbase)| (0+32768)))& (0+255)
  1469  014C  120A  158A  2663  120A  118A  	fcall	_Lcd_Write_String
  1470                           
  1471                           ;keypad.c: 78: _delay((unsigned long)((2000)*(20000000/4000.0)));
  1472  0151  3033               	movlw	51
  1473  0152  1683               	bsf	3,5	;RP0=1, select bank3
  1474  0153  1703               	bsf	3,6	;RP1=1, select bank3
  1475  0154  00DC               	movwf	(??_main^(0+384)+2)
  1476  0155  30BB               	movlw	187
  1477  0156  00DB               	movwf	(??_main^(0+384)+1)
  1478  0157  30DF               	movlw	223
  1479  0158  00DA               	movwf	??_main^(0+384)
  1480  0159                     u2577:	
  1481  0159  0BDA               	decfsz	??_main^(0+384),f
  1482  015A  2959               	goto	u2577
  1483  015B  0BDB               	decfsz	(??_main^(0+384)+1),f
  1484  015C  2959               	goto	u2577
  1485  015D  0BDC               	decfsz	(??_main^(0+384)+2),f
  1486  015E  2959               	goto	u2577
  1487                           
  1488                           ;keypad.c: 79: i=0;
  1489  015F  1283               	bcf	3,5	;RP0=0, select bank0
  1490  0160  1303               	bcf	3,6	;RP1=0, select bank0
  1491  0161  01C5               	clrf	_i
  1492  0162  01C6               	clrf	_i+1
  1493  0163                     l2890:	
  1494                           ;keypad.c: 81: while(i<4)
  1495                           
  1496  0163  3000               	movlw	0
  1497  0164  1283               	bcf	3,5	;RP0=0, select bank0
  1498  0165  1303               	bcf	3,6	;RP1=0, select bank0
  1499  0166  0246               	subwf	_i+1,w
  1500  0167  3004               	movlw	4
  1501  0168  1903               	skipnz
  1502  0169  0245               	subwf	_i,w
  1503  016A  1803               	btfsc	3,0
  1504  016B  2912               	goto	l2798
  1505                           
  1506                           ;keypad.c: 82: {
  1507                           ;keypad.c: 83: x=readKeyboard();
  1508  016C  120A  118A  25A9  120A  118A  	fcall	_readKeyboard
  1509  0171  1683               	bsf	3,5	;RP0=1, select bank3
  1510  0172  1703               	bsf	3,6	;RP1=1, select bank3
  1511  0173  00DA               	movwf	??_main^(0+384)
  1512  0174  085A               	movf	??_main^(0+384),w
  1513  0175  1283               	bcf	3,5	;RP0=0, select bank0
  1514  0176  1303               	bcf	3,6	;RP1=0, select bank0
  1515  0177  00CF               	movwf	_x
  1516                           
  1517                           ;keypad.c: 84: _delay((unsigned long)((500)*(20000000/4000.0)));
  1518  0178  300D               	movlw	13
  1519  0179  1683               	bsf	3,5	;RP0=1, select bank3
  1520  017A  1703               	bsf	3,6	;RP1=1, select bank3
  1521  017B  00DC               	movwf	(??_main^(0+384)+2)
  1522  017C  30AF               	movlw	175
  1523  017D  00DB               	movwf	(??_main^(0+384)+1)
  1524  017E  30B5               	movlw	181
  1525  017F  00DA               	movwf	??_main^(0+384)
  1526  0180                     u2587:	
  1527  0180  0BDA               	decfsz	??_main^(0+384),f
  1528  0181  2980               	goto	u2587
  1529  0182  0BDB               	decfsz	(??_main^(0+384)+1),f
  1530  0183  2980               	goto	u2587
  1531  0184  0BDC               	decfsz	(??_main^(0+384)+2),f
  1532  0185  2980               	goto	u2587
  1533  0186  2987               	nop2
  1534                           
  1535                           ;keypad.c: 85: z[i]=x;
  1536  0187  1283               	bcf	3,5	;RP0=0, select bank0
  1537  0188  1303               	bcf	3,6	;RP1=0, select bank0
  1538  0189  084F               	movf	_x,w
  1539  018A  1683               	bsf	3,5	;RP0=1, select bank3
  1540  018B  1703               	bsf	3,6	;RP1=1, select bank3
  1541  018C  00DA               	movwf	??_main^(0+384)
  1542  018D  1283               	bcf	3,5	;RP0=0, select bank0
  1543  018E  1303               	bcf	3,6	;RP1=0, select bank0
  1544  018F  0845               	movf	_i,w
  1545  0190  3EC1               	addlw	(low (_z| 0))& (0+255)
  1546  0191  0084               	movwf	4
  1547  0192  1683               	bsf	3,5	;RP0=1, select bank3
  1548  0193  1703               	bsf	3,6	;RP1=1, select bank3
  1549  0194  085A               	movf	??_main^(0+384),w
  1550  0195  1383               	bcf	3,7	;select IRP bank1
  1551  0196  0080               	movwf	0
  1552                           
  1553                           ;keypad.c: 86: i++;
  1554  0197  3001               	movlw	1
  1555  0198  1283               	bcf	3,5	;RP0=0, select bank0
  1556  0199  1303               	bcf	3,6	;RP1=0, select bank0
  1557  019A  07C5               	addwf	_i,f
  1558  019B  1803               	skipnc
  1559  019C  0AC6               	incf	_i+1,f
  1560  019D  3000               	movlw	0
  1561  019E  07C6               	addwf	_i+1,f
  1562                           
  1563                           ;keypad.c: 87: Lcd_Set_Cursor(2,i);
  1564  019F  0845               	movf	_i,w
  1565  01A0  1683               	bsf	3,5	;RP0=1, select bank3
  1566  01A1  1703               	bsf	3,6	;RP1=1, select bank3
  1567  01A2  00DA               	movwf	??_main^(0+384)
  1568  01A3  085A               	movf	??_main^(0+384),w
  1569  01A4  1283               	bcf	3,5	;RP0=0, select bank0
  1570  01A5  1303               	bcf	3,6	;RP1=0, select bank0
  1571  01A6  00E2               	movwf	Lcd_Set_Cursor@b
  1572  01A7  3002               	movlw	2
  1573  01A8  120A  118A  26C3  120A  118A  	fcall	_Lcd_Set_Cursor
  1574                           
  1575                           ;keypad.c: 88: Lcd_Write_Char(x);
  1576  01AD  1283               	bcf	3,5	;RP0=0, select bank0
  1577  01AE  1303               	bcf	3,6	;RP1=0, select bank0
  1578  01AF  084F               	movf	_x,w
  1579  01B0  120A  158A  2727  120A  118A  	fcall	_Lcd_Write_Char
  1580                           
  1581                           ;keypad.c: 90: _delay((unsigned long)((200)*(20000000/4000.0)));
  1582  01B5  3006               	movlw	6
  1583  01B6  1683               	bsf	3,5	;RP0=1, select bank3
  1584  01B7  1703               	bsf	3,6	;RP1=1, select bank3
  1585  01B8  00DC               	movwf	(??_main^(0+384)+2)
  1586  01B9  3013               	movlw	19
  1587  01BA  00DB               	movwf	(??_main^(0+384)+1)
  1588  01BB  30AD               	movlw	173
  1589  01BC  00DA               	movwf	??_main^(0+384)
  1590  01BD                     u2597:	
  1591  01BD  0BDA               	decfsz	??_main^(0+384),f
  1592  01BE  29BD               	goto	u2597
  1593  01BF  0BDB               	decfsz	(??_main^(0+384)+1),f
  1594  01C0  29BD               	goto	u2597
  1595  01C1  0BDC               	decfsz	(??_main^(0+384)+2),f
  1596  01C2  29BD               	goto	u2597
  1597                           
  1598                           ;keypad.c: 91: if(i==4)
  1599  01C3  3004               	movlw	4
  1600  01C4  1283               	bcf	3,5	;RP0=0, select bank0
  1601  01C5  1303               	bcf	3,6	;RP1=0, select bank0
  1602  01C6  0645               	xorwf	_i,w
  1603  01C7  0446               	iorwf	_i+1,w
  1604  01C8  1D03               	btfss	3,2
  1605  01C9  2963               	goto	l2890
  1606                           
  1607                           ;keypad.c: 92: {
  1608                           ;keypad.c: 93: z[4]='\0';
  1609  01CA  1683               	bsf	3,5	;RP0=1, select bank1
  1610  01CB  1303               	bcf	3,6	;RP1=0, select bank1
  1611  01CC  01C5               	clrf	(_z^(0+128)+4)
  1612                           
  1613                           ;keypad.c: 95: t3=strcmp(z,temp);
  1614  01CD  30CB               	movlw	(low (_temp| 0))& (0+255)
  1615  01CE  1683               	bsf	3,5	;RP0=1, select bank3
  1616  01CF  1703               	bsf	3,6	;RP1=1, select bank3
  1617  01D0  00DA               	movwf	??_main^(0+384)
  1618  01D1  085A               	movf	??_main^(0+384),w
  1619  01D2  1283               	bcf	3,5	;RP0=0, select bank0
  1620  01D3  1303               	bcf	3,6	;RP1=0, select bank0
  1621  01D4  00DE               	movwf	strcmp@s2
  1622  01D5  30C1               	movlw	(low (_z| 0))& (0+255)
  1623  01D6  120A  158A  2689  120A  118A  	fcall	_strcmp
  1624  01DB  1283               	bcf	3,5	;RP0=0, select bank0
  1625  01DC  1303               	bcf	3,6	;RP1=0, select bank0
  1626  01DD  085F               	movf	?_strcmp+1,w
  1627  01DE  00C4               	movwf	_t3+1
  1628  01DF  085E               	movf	?_strcmp,w
  1629  01E0  00C3               	movwf	_t3
  1630                           
  1631                           ;keypad.c: 96: if(t3==0)
  1632  01E1  0843               	movf	_t3,w
  1633  01E2  0444               	iorwf	_t3+1,w
  1634  01E3  1D03               	btfss	3,2
  1635  01E4  2A57               	goto	l2876
  1636                           
  1637                           ;keypad.c: 97: {
  1638                           ;keypad.c: 98: j=0;
  1639  01E5  01C7               	clrf	_j
  1640  01E6  01C8               	clrf	_j+1
  1641                           
  1642                           ;keypad.c: 99: Lcd_Clear();
  1643  01E7  120A  118A  27F1  120A  118A  	fcall	_Lcd_Clear
  1644                           
  1645                           ;keypad.c: 100: Lcd_Set_Cursor(1,1);
  1646  01EC  1283               	bcf	3,5	;RP0=0, select bank0
  1647  01ED  1303               	bcf	3,6	;RP1=0, select bank0
  1648  01EE  01E2               	clrf	Lcd_Set_Cursor@b
  1649  01EF  0AE2               	incf	Lcd_Set_Cursor@b,f
  1650  01F0  3001               	movlw	1
  1651  01F1  120A  118A  26C3  120A  118A  	fcall	_Lcd_Set_Cursor
  1652                           
  1653                           ;keypad.c: 101: Lcd_Write_String("Password Match");
  1654  01F6  3087               	movlw	(low ((STR_7-__stringbase)| (0+32768)))& (0+255)
  1655  01F7  120A  158A  2663  120A  118A  	fcall	_Lcd_Write_String
  1656                           
  1657                           ;keypad.c: 102: Lcd_Set_Cursor(2,1);
  1658  01FC  1283               	bcf	3,5	;RP0=0, select bank0
  1659  01FD  1303               	bcf	3,6	;RP1=0, select bank0
  1660  01FE  01E2               	clrf	Lcd_Set_Cursor@b
  1661  01FF  0AE2               	incf	Lcd_Set_Cursor@b,f
  1662  0200  3002               	movlw	2
  1663  0201  120A  118A  26C3  120A  118A  	fcall	_Lcd_Set_Cursor
  1664                           
  1665                           ;keypad.c: 103: Lcd_Write_String("Unlocked...");
  1666  0206  3096               	movlw	(low ((STR_8-__stringbase)| (0+32768)))& (0+255)
  1667  0207  120A  158A  2663  120A  118A  	fcall	_Lcd_Write_String
  1668                           
  1669                           ;keypad.c: 104: _delay((unsigned long)((2000)*(20000000/4000.0)));
  1670  020C  3033               	movlw	51
  1671  020D  1683               	bsf	3,5	;RP0=1, select bank3
  1672  020E  1703               	bsf	3,6	;RP1=1, select bank3
  1673  020F  00DC               	movwf	(??_main^(0+384)+2)
  1674  0210  30BB               	movlw	187
  1675  0211  00DB               	movwf	(??_main^(0+384)+1)
  1676  0212  30DF               	movlw	223
  1677  0213  00DA               	movwf	??_main^(0+384)
  1678  0214                     u2607:	
  1679  0214  0BDA               	decfsz	??_main^(0+384),f
  1680  0215  2A14               	goto	u2607
  1681  0216  0BDB               	decfsz	(??_main^(0+384)+1),f
  1682  0217  2A14               	goto	u2607
  1683  0218  0BDC               	decfsz	(??_main^(0+384)+2),f
  1684  0219  2A14               	goto	u2607
  1685                           
  1686                           ;keypad.c: 105: RB2=1;
  1687  021A  1283               	bcf	3,5	;RP0=0, select bank0
  1688  021B  1303               	bcf	3,6	;RP1=0, select bank0
  1689  021C  1506               	bsf	6,2	;volatile
  1690                           
  1691                           ;keypad.c: 106: RB3=0;
  1692  021D  1186               	bcf	6,3	;volatile
  1693                           
  1694                           ;keypad.c: 107: _delay((unsigned long)((700)*(20000000/4000.0)));
  1695  021E  3012               	movlw	18
  1696  021F  1683               	bsf	3,5	;RP0=1, select bank3
  1697  0220  1703               	bsf	3,6	;RP1=1, select bank3
  1698  0221  00DC               	movwf	(??_main^(0+384)+2)
  1699  0222  30C2               	movlw	194
  1700  0223  00DB               	movwf	(??_main^(0+384)+1)
  1701  0224  3065               	movlw	101
  1702  0225  00DA               	movwf	??_main^(0+384)
  1703  0226                     u2617:	
  1704  0226  0BDA               	decfsz	??_main^(0+384),f
  1705  0227  2A26               	goto	u2617
  1706  0228  0BDB               	decfsz	(??_main^(0+384)+1),f
  1707  0229  2A26               	goto	u2617
  1708  022A  0BDC               	decfsz	(??_main^(0+384)+2),f
  1709  022B  2A26               	goto	u2617
  1710  022C  2A2D               	nop2
  1711                           
  1712                           ;keypad.c: 108: RB2=0;
  1713  022D  1283               	bcf	3,5	;RP0=0, select bank0
  1714  022E  1303               	bcf	3,6	;RP1=0, select bank0
  1715  022F  1106               	bcf	6,2	;volatile
  1716                           
  1717                           ;keypad.c: 109: RB3=0;
  1718  0230  1186               	bcf	6,3	;volatile
  1719                           
  1720                           ;keypad.c: 110: _delay((unsigned long)((5000)*(20000000/4000.0)));
  1721  0231  307F               	movlw	127
  1722  0232  1683               	bsf	3,5	;RP0=1, select bank3
  1723  0233  1703               	bsf	3,6	;RP1=1, select bank3
  1724  0234  00DC               	movwf	(??_main^(0+384)+2)
  1725  0235  30D4               	movlw	212
  1726  0236  00DB               	movwf	(??_main^(0+384)+1)
  1727  0237  3031               	movlw	49
  1728  0238  00DA               	movwf	??_main^(0+384)
  1729  0239                     u2627:	
  1730  0239  0BDA               	decfsz	??_main^(0+384),f
  1731  023A  2A39               	goto	u2627
  1732  023B  0BDB               	decfsz	(??_main^(0+384)+1),f
  1733  023C  2A39               	goto	u2627
  1734  023D  0BDC               	decfsz	(??_main^(0+384)+2),f
  1735  023E  2A39               	goto	u2627
  1736                           
  1737                           ;keypad.c: 111: RB2=0;
  1738  023F  1283               	bcf	3,5	;RP0=0, select bank0
  1739  0240  1303               	bcf	3,6	;RP1=0, select bank0
  1740  0241  1106               	bcf	6,2	;volatile
  1741                           
  1742                           ;keypad.c: 112: RB3=1;
  1743  0242  1586               	bsf	6,3	;volatile
  1744                           
  1745                           ;keypad.c: 113: _delay((unsigned long)((700)*(20000000/4000.0)));
  1746  0243  3012               	movlw	18
  1747  0244  1683               	bsf	3,5	;RP0=1, select bank3
  1748  0245  1703               	bsf	3,6	;RP1=1, select bank3
  1749  0246  00DC               	movwf	(??_main^(0+384)+2)
  1750  0247  30C2               	movlw	194
  1751  0248  00DB               	movwf	(??_main^(0+384)+1)
  1752  0249  3065               	movlw	101
  1753  024A  00DA               	movwf	??_main^(0+384)
  1754  024B                     u2637:	
  1755  024B  0BDA               	decfsz	??_main^(0+384),f
  1756  024C  2A4B               	goto	u2637
  1757  024D  0BDB               	decfsz	(??_main^(0+384)+1),f
  1758  024E  2A4B               	goto	u2637
  1759  024F  0BDC               	decfsz	(??_main^(0+384)+2),f
  1760  0250  2A4B               	goto	u2637
  1761  0251  2A52               	nop2
  1762                           
  1763                           ;keypad.c: 114: RB2=0;
  1764  0252  1283               	bcf	3,5	;RP0=0, select bank0
  1765  0253  1303               	bcf	3,6	;RP1=0, select bank0
  1766  0254  1106               	bcf	6,2	;volatile
  1767                           
  1768                           ;keypad.c: 115: RB3=0;
  1769  0255  1186               	bcf	6,3	;volatile
  1770                           
  1771                           ;keypad.c: 116: goto s;
  1772  0256  2912               	goto	l2798
  1773  0257                     l2876:	
  1774                           ;keypad.c: 117: }
  1775                           
  1776                           
  1777                           ;keypad.c: 118: else
  1778                           ;keypad.c: 119: {
  1779                           ;keypad.c: 120: j=0;
  1780  0257  01C7               	clrf	_j
  1781  0258  01C8               	clrf	_j+1
  1782                           
  1783                           ;keypad.c: 121: Lcd_Clear();
  1784  0259  120A  118A  27F1  120A  118A  	fcall	_Lcd_Clear
  1785                           
  1786                           ;keypad.c: 122: Lcd_Set_Cursor(1,1);
  1787  025E  1283               	bcf	3,5	;RP0=0, select bank0
  1788  025F  1303               	bcf	3,6	;RP1=0, select bank0
  1789  0260  01E2               	clrf	Lcd_Set_Cursor@b
  1790  0261  0AE2               	incf	Lcd_Set_Cursor@b,f
  1791  0262  3001               	movlw	1
  1792  0263  120A  118A  26C3  120A  118A  	fcall	_Lcd_Set_Cursor
  1793                           
  1794                           ;keypad.c: 123: Lcd_Write_String("Pa.word mismatch");
  1795  0268  303A               	movlw	(low ((STR_9-__stringbase)| (0+32768)))& (0+255)
  1796  0269  120A  158A  2663  120A  118A  	fcall	_Lcd_Write_String
  1797                           
  1798                           ;keypad.c: 124: Lcd_Set_Cursor(2,1);
  1799  026E  1283               	bcf	3,5	;RP0=0, select bank0
  1800  026F  1303               	bcf	3,6	;RP1=0, select bank0
  1801  0270  01E2               	clrf	Lcd_Set_Cursor@b
  1802  0271  0AE2               	incf	Lcd_Set_Cursor@b,f
  1803  0272  3002               	movlw	2
  1804  0273  120A  118A  26C3  120A  118A  	fcall	_Lcd_Set_Cursor
  1805                           
  1806                           ;keypad.c: 125: Lcd_Write_String("Sorry...");
  1807  0278  30C2               	movlw	(low ((STR_10-__stringbase)| (0+32768)))& (0+255)
  1808  0279  120A  158A  2663  120A  118A  	fcall	_Lcd_Write_String
  1809                           
  1810                           ;keypad.c: 126: _delay((unsigned long)((2000)*(20000000/4000.0)));
  1811  027E  3033               	movlw	51
  1812  027F  1683               	bsf	3,5	;RP0=1, select bank3
  1813  0280  1703               	bsf	3,6	;RP1=1, select bank3
  1814  0281  00DC               	movwf	(??_main^(0+384)+2)
  1815  0282  30BB               	movlw	187
  1816  0283  00DB               	movwf	(??_main^(0+384)+1)
  1817  0284  30DF               	movlw	223
  1818  0285  00DA               	movwf	??_main^(0+384)
  1819  0286                     u2647:	
  1820  0286  0BDA               	decfsz	??_main^(0+384),f
  1821  0287  2A86               	goto	u2647
  1822  0288  0BDB               	decfsz	(??_main^(0+384)+1),f
  1823  0289  2A86               	goto	u2647
  1824  028A  0BDC               	decfsz	(??_main^(0+384)+2),f
  1825  028B  2A86               	goto	u2647
  1826                           
  1827                           ;keypad.c: 127: goto s;
  1828  028C  2912               	goto	l2798
  1829  028D                     __end_of_main:	
  1830                           
  1831                           	psect	text1
  1832  0E89                     __ptext1:	
  1833 ;; *************** function _strcmp *****************
  1834 ;; Defined at:
  1835 ;;		line 33 in file "C:\Program Files\Microchip\xc8\v1.45\sources\common\strcmp.c"
  1836 ;; Parameters:    Size  Location     Type
  1837 ;;  s1              1    wreg     PTR const unsigned char 
  1838 ;;		 -> z(10), 
  1839 ;;  s2              1   10[BANK0 ] PTR const unsigned char 
  1840 ;;		 -> temp(10), 
  1841 ;; Auto vars:     Size  Location     Type
  1842 ;;  s1              1   15[BANK0 ] PTR const unsigned char 
  1843 ;;		 -> z(10), 
  1844 ;;  r               1   14[BANK0 ] char 
  1845 ;; Return value:  Size  Location     Type
  1846 ;;                  2   10[BANK0 ] int 
  1847 ;; Registers used:
  1848 ;;		wreg, fsr0l, fsr0h, status,2, status,0
  1849 ;; Tracked objects:
  1850 ;;		On entry : 0/0
  1851 ;;		On exit  : 0/0
  1852 ;;		Unchanged: 0/0
  1853 ;; Data sizes:     COMMON   BANK0   BANK1   BANK3   BANK2
  1854 ;;      Params:         0       2       0       0       0
  1855 ;;      Locals:         0       2       0       0       0
  1856 ;;      Temps:          0       2       0       0       0
  1857 ;;      Totals:         0       6       0       0       0
  1858 ;;Total ram usage:        6 bytes
  1859 ;; Hardware stack levels used:    1
  1860 ;; Hardware stack levels required when called:    4
  1861 ;; This function calls:
  1862 ;;		Nothing
  1863 ;; This function is called by:
  1864 ;;		_main
  1865 ;; This function uses a non-reentrant model
  1866 ;;
  1867                           
  1868                           
  1869                           ;psect for function _strcmp
  1870  0E89                     _strcmp:	
  1871                           
  1872                           ;incstack = 0
  1873                           ; Regs used in _strcmp: [wreg-fsr0h+status,2+status,0]
  1874                           ;strcmp@s1 stored from wreg
  1875  0E89  1283               	bcf	3,5	;RP0=0, select bank0
  1876  0E8A  1303               	bcf	3,6	;RP1=0, select bank0
  1877  0E8B  00E3               	movwf	strcmp@s1
  1878  0E8C  2E95               	goto	l2100
  1879  0E8D                     l2096:	
  1880  0E8D  3001               	movlw	1
  1881  0E8E  00E0               	movwf	??_strcmp
  1882  0E8F  0860               	movf	??_strcmp,w
  1883  0E90  07E3               	addwf	strcmp@s1,f
  1884  0E91  3001               	movlw	1
  1885  0E92  00E0               	movwf	??_strcmp
  1886  0E93  0860               	movf	??_strcmp,w
  1887  0E94  07DE               	addwf	strcmp@s2,f
  1888  0E95                     l2100:	
  1889  0E95  0863               	movf	strcmp@s1,w
  1890  0E96  0084               	movwf	4
  1891  0E97  1383               	bcf	3,7	;select IRP bank0
  1892  0E98  0800               	movf	0,w
  1893  0E99  00E0               	movwf	??_strcmp
  1894  0E9A  085E               	movf	strcmp@s2,w
  1895  0E9B  0084               	movwf	4
  1896  0E9C  0300               	decf	0,w
  1897  0E9D  3AFF               	xorlw	255
  1898  0E9E  0760               	addwf	??_strcmp,w
  1899  0E9F  00E1               	movwf	??_strcmp+1
  1900  0EA0  0861               	movf	??_strcmp+1,w
  1901  0EA1  00E2               	movwf	strcmp@r
  1902  0EA2  0862               	movf	strcmp@r,w
  1903  0EA3  1D03               	btfss	3,2
  1904  0EA4  2EAA               	goto	l2104
  1905  0EA5  0863               	movf	strcmp@s1,w
  1906  0EA6  0084               	movwf	4
  1907  0EA7  0800               	movf	0,w
  1908  0EA8  1D03               	btfss	3,2
  1909  0EA9  2E8D               	goto	l2096
  1910  0EAA                     l2104:	
  1911  0EAA  0862               	movf	strcmp@r,w
  1912  0EAB  00DE               	movwf	?_strcmp
  1913  0EAC  01DF               	clrf	?_strcmp+1
  1914  0EAD  1BDE               	btfsc	?_strcmp,7
  1915  0EAE  03DF               	decf	?_strcmp+1,f
  1916  0EAF  0008               	return
  1917  0EB0                     __end_of_strcmp:	
  1918                           
  1919                           	psect	text2
  1920  05A9                     __ptext2:	
  1921 ;; *************** function _readKeyboard *****************
  1922 ;; Defined at:
  1923 ;;		line 398 in file "lib.h"
  1924 ;; Parameters:    Size  Location     Type
  1925 ;;		None
  1926 ;; Auto vars:     Size  Location     Type
  1927 ;;  i               2    0[BANK1 ] unsigned int 
  1928 ;; Return value:  Size  Location     Type
  1929 ;;                  1    wreg      unsigned char 
  1930 ;; Registers used:
  1931 ;;		wreg, status,2, status,0, pclath, cstack
  1932 ;; Tracked objects:
  1933 ;;		On entry : 0/0
  1934 ;;		On exit  : 0/0
  1935 ;;		Unchanged: 0/0
  1936 ;; Data sizes:     COMMON   BANK0   BANK1   BANK3   BANK2
  1937 ;;      Params:         0       0       0       0       0
  1938 ;;      Locals:         0       0       2       0       0
  1939 ;;      Temps:          0       3       0       0       0
  1940 ;;      Totals:         0       3       2       0       0
  1941 ;;Total ram usage:        5 bytes
  1942 ;; Hardware stack levels used:    1
  1943 ;; Hardware stack levels required when called:    5
  1944 ;; This function calls:
  1945 ;;		_findKey
  1946 ;; This function is called by:
  1947 ;;		_main
  1948 ;; This function uses a non-reentrant model
  1949 ;;
  1950                           
  1951                           
  1952                           ;psect for function _readKeyboard
  1953  05A9                     _readKeyboard:	
  1954                           
  1955                           ;lib.h: 400: unsigned int i = 0;
  1956                           
  1957                           ;incstack = 0
  1958                           ; Regs used in _readKeyboard: [wreg+status,2+status,0+pclath+cstack]
  1959  05A9  1683               	bsf	3,5	;RP0=1, select bank1
  1960  05AA  1303               	bcf	3,6	;RP1=0, select bank1
  1961  05AB  01EA               	clrf	readKeyboard@i^(0+128)
  1962  05AC  01EB               	clrf	(readKeyboard@i+1)^(0+128)
  1963  05AD                     l321:	
  1964                           ;lib.h: 401: while(1)
  1965                           
  1966                           
  1967                           ;lib.h: 402: {
  1968                           ;lib.h: 403: for(i=0;i<4;i++)
  1969  05AD  01EA               	clrf	readKeyboard@i^(0+128)
  1970  05AE  01EB               	clrf	(readKeyboard@i+1)^(0+128)
  1971  05AF                     L4:	
  1972  05AF  3000               	movlw	0
  1973  05B0  026B               	subwf	(readKeyboard@i+1)^(0+128),w
  1974  05B1  3004               	movlw	4
  1975  05B2  1903               	skipnz
  1976  05B3  026A               	subwf	readKeyboard@i^(0+128),w
  1977  05B4  1803               	btfsc	3,0
  1978  05B5  2DAD               	goto	l321
  1979                           
  1980                           ;lib.h: 404: {
  1981                           ;lib.h: 405: if(i == 0)
  1982  05B6  086A               	movf	readKeyboard@i^(0+128),w
  1983  05B7  046B               	iorwf	(readKeyboard@i+1)^(0+128),w
  1984  05B8  1D03               	btfss	3,2
  1985  05B9  2DBC               	goto	l2708
  1986                           
  1987                           ;lib.h: 406: PORTC = 1;
  1988  05BA  3001               	movlw	1
  1989  05BB  2DD5               	goto	L3
  1990  05BC                     l2708:	
  1991                           
  1992                           ;lib.h: 407: else if(i == 1)
  1993  05BC  1683               	bsf	3,5	;RP0=1, select bank1
  1994  05BD  1303               	bcf	3,6	;RP1=0, select bank1
  1995  05BE  036A               	decf	readKeyboard@i^(0+128),w
  1996  05BF  046B               	iorwf	(readKeyboard@i+1)^(0+128),w
  1997  05C0  1D03               	btfss	3,2
  1998  05C1  2DC4               	goto	l2712
  1999                           
  2000                           ;lib.h: 408: PORTC = 2;
  2001  05C2  3002               	movlw	2
  2002  05C3  2DD5               	goto	L3
  2003  05C4                     l2712:	
  2004                           
  2005                           ;lib.h: 409: else if(i == 2)
  2006  05C4  3002               	movlw	2
  2007  05C5  1683               	bsf	3,5	;RP0=1, select bank1
  2008  05C6  1303               	bcf	3,6	;RP1=0, select bank1
  2009  05C7  066A               	xorwf	readKeyboard@i^(0+128),w
  2010  05C8  046B               	iorwf	(readKeyboard@i+1)^(0+128),w
  2011  05C9  1D03               	btfss	3,2
  2012  05CA  2DCD               	goto	l2716
  2013                           
  2014                           ;lib.h: 410: PORTC = 4;
  2015  05CB  3004               	movlw	4
  2016  05CC  2DD5               	goto	L3
  2017  05CD                     l2716:	
  2018                           
  2019                           ;lib.h: 411: else if(i == 3)
  2020  05CD  3003               	movlw	3
  2021  05CE  1683               	bsf	3,5	;RP0=1, select bank1
  2022  05CF  1303               	bcf	3,6	;RP1=0, select bank1
  2023  05D0  066A               	xorwf	readKeyboard@i^(0+128),w
  2024  05D1  046B               	iorwf	(readKeyboard@i+1)^(0+128),w
  2025  05D2  1D03               	btfss	3,2
  2026  05D3  2DD8               	goto	l2720
  2027                           
  2028                           ;lib.h: 412: PORTC = 8;
  2029  05D4  3008               	movlw	8
  2030  05D5                     L3:	
  2031  05D5  1283               	bcf	3,5	;RP0=0, select bank0
  2032  05D6  1303               	bcf	3,6	;RP1=0, select bank0
  2033  05D7  0087               	movwf	7	;volatile
  2034  05D8                     l2720:	
  2035                           
  2036                           ;lib.h: 414: if(RB4)
  2037  05D8  1283               	bcf	3,5	;RP0=0, select bank0
  2038  05D9  1E06               	btfss	6,4	;volatile
  2039  05DA  2DEE               	goto	l331
  2040                           
  2041                           ;lib.h: 415: {
  2042                           ;lib.h: 417: return findKey(i,0);
  2043  05DB  1683               	bsf	3,5	;RP0=1, select bank1
  2044  05DC  1303               	bcf	3,6	;RP1=0, select bank1
  2045  05DD  086B               	movf	(readKeyboard@i+1)^(0+128),w
  2046  05DE  1283               	bcf	3,5	;RP0=0, select bank0
  2047  05DF  1303               	bcf	3,6	;RP1=0, select bank0
  2048  05E0  00DF               	movwf	findKey@a+1
  2049  05E1  1683               	bsf	3,5	;RP0=1, select bank1
  2050  05E2  1303               	bcf	3,6	;RP1=0, select bank1
  2051  05E3  086A               	movf	readKeyboard@i^(0+128),w
  2052  05E4  1283               	bcf	3,5	;RP0=0, select bank0
  2053  05E5  1303               	bcf	3,6	;RP1=0, select bank0
  2054  05E6  00DE               	movwf	findKey@a
  2055  05E7  3000               	movlw	0
  2056  05E8  00E0               	movwf	findKey@b
  2057  05E9  00E1               	movwf	findKey@b+1
  2058  05EA  120A  118A  2647   	fcall	_findKey
  2059  05ED  0008               	return
  2060  05EE                     l331:	
  2061                           
  2062                           ;lib.h: 419: }
  2063                           ;lib.h: 420: if(RB5)
  2064  05EE  1E86               	btfss	6,5	;volatile
  2065  05EF  2E04               	goto	l333
  2066                           
  2067                           ;lib.h: 421: {
  2068                           ;lib.h: 423: return findKey(i,1);
  2069  05F0  1683               	bsf	3,5	;RP0=1, select bank1
  2070  05F1  1303               	bcf	3,6	;RP1=0, select bank1
  2071  05F2  086B               	movf	(readKeyboard@i+1)^(0+128),w
  2072  05F3  1283               	bcf	3,5	;RP0=0, select bank0
  2073  05F4  1303               	bcf	3,6	;RP1=0, select bank0
  2074  05F5  00DF               	movwf	findKey@a+1
  2075  05F6  1683               	bsf	3,5	;RP0=1, select bank1
  2076  05F7  1303               	bcf	3,6	;RP1=0, select bank1
  2077  05F8  086A               	movf	readKeyboard@i^(0+128),w
  2078  05F9  1283               	bcf	3,5	;RP0=0, select bank0
  2079  05FA  1303               	bcf	3,6	;RP1=0, select bank0
  2080  05FB  00DE               	movwf	findKey@a
  2081  05FC  3001               	movlw	1
  2082  05FD  00E0               	movwf	findKey@b
  2083  05FE  3000               	movlw	0
  2084  05FF  00E1               	movwf	findKey@b+1
  2085  0600  120A  118A  2647   	fcall	_findKey
  2086  0603  0008               	return
  2087  0604                     l333:	
  2088                           
  2089                           ;lib.h: 425: }
  2090                           ;lib.h: 426: if(RB6)
  2091  0604  1F06               	btfss	6,6	;volatile
  2092  0605  2E1A               	goto	l334
  2093                           
  2094                           ;lib.h: 427: {
  2095                           ;lib.h: 429: return findKey(i,2);
  2096  0606  1683               	bsf	3,5	;RP0=1, select bank1
  2097  0607  1303               	bcf	3,6	;RP1=0, select bank1
  2098  0608  086B               	movf	(readKeyboard@i+1)^(0+128),w
  2099  0609  1283               	bcf	3,5	;RP0=0, select bank0
  2100  060A  1303               	bcf	3,6	;RP1=0, select bank0
  2101  060B  00DF               	movwf	findKey@a+1
  2102  060C  1683               	bsf	3,5	;RP0=1, select bank1
  2103  060D  1303               	bcf	3,6	;RP1=0, select bank1
  2104  060E  086A               	movf	readKeyboard@i^(0+128),w
  2105  060F  1283               	bcf	3,5	;RP0=0, select bank0
  2106  0610  1303               	bcf	3,6	;RP1=0, select bank0
  2107  0611  00DE               	movwf	findKey@a
  2108  0612  3002               	movlw	2
  2109  0613  00E0               	movwf	findKey@b
  2110  0614  3000               	movlw	0
  2111  0615  00E1               	movwf	findKey@b+1
  2112  0616  120A  118A  2647   	fcall	_findKey
  2113  0619  0008               	return
  2114  061A                     l334:	
  2115                           
  2116                           ;lib.h: 431: }
  2117                           ;lib.h: 432: if(RB7)
  2118  061A  1F86               	btfss	6,7	;volatile
  2119  061B  2E30               	goto	l2738
  2120                           
  2121                           ;lib.h: 433: {
  2122                           ;lib.h: 435: return findKey(i,3);
  2123  061C  1683               	bsf	3,5	;RP0=1, select bank1
  2124  061D  1303               	bcf	3,6	;RP1=0, select bank1
  2125  061E  086B               	movf	(readKeyboard@i+1)^(0+128),w
  2126  061F  1283               	bcf	3,5	;RP0=0, select bank0
  2127  0620  1303               	bcf	3,6	;RP1=0, select bank0
  2128  0621  00DF               	movwf	findKey@a+1
  2129  0622  1683               	bsf	3,5	;RP0=1, select bank1
  2130  0623  1303               	bcf	3,6	;RP1=0, select bank1
  2131  0624  086A               	movf	readKeyboard@i^(0+128),w
  2132  0625  1283               	bcf	3,5	;RP0=0, select bank0
  2133  0626  1303               	bcf	3,6	;RP1=0, select bank0
  2134  0627  00DE               	movwf	findKey@a
  2135  0628  3003               	movlw	3
  2136  0629  00E0               	movwf	findKey@b
  2137  062A  3000               	movlw	0
  2138  062B  00E1               	movwf	findKey@b+1
  2139  062C  120A  118A  2647   	fcall	_findKey
  2140  062F  0008               	return
  2141  0630                     l2738:	
  2142                           
  2143                           ;lib.h: 437: }
  2144                           ;lib.h: 438: _delay((unsigned long)((250)*(20000000/4000.0)));
  2145  0630  3007               	movlw	7
  2146  0631  1283               	bcf	3,5	;RP0=0, select bank0
  2147  0632  1303               	bcf	3,6	;RP1=0, select bank0
  2148  0633  00E4               	movwf	??_readKeyboard+2
  2149  0634  3058               	movlw	88
  2150  0635  00E3               	movwf	??_readKeyboard+1
  2151  0636  3059               	movlw	89
  2152  0637  00E2               	movwf	??_readKeyboard
  2153  0638                     u2657:	
  2154  0638  0BE2               	decfsz	??_readKeyboard,f
  2155  0639  2E38               	goto	u2657
  2156  063A  0BE3               	decfsz	??_readKeyboard+1,f
  2157  063B  2E38               	goto	u2657
  2158  063C  0BE4               	decfsz	??_readKeyboard+2,f
  2159  063D  2E38               	goto	u2657
  2160  063E  3001               	movlw	1
  2161  063F  1683               	bsf	3,5	;RP0=1, select bank1
  2162  0640  1303               	bcf	3,6	;RP1=0, select bank1
  2163  0641  07EA               	addwf	readKeyboard@i^(0+128),f
  2164  0642  1803               	skipnc
  2165  0643  0AEB               	incf	(readKeyboard@i+1)^(0+128),f
  2166  0644  3000               	movlw	0
  2167  0645  07EB               	addwf	(readKeyboard@i+1)^(0+128),f
  2168  0646  2DAF               	goto	L4
  2169  0647                     __end_of_readKeyboard:	
  2170                           
  2171                           	psect	text3
  2172  0647                     __ptext3:	
  2173 ;; *************** function _findKey *****************
  2174 ;; Defined at:
  2175 ;;		line 340 in file "lib.h"
  2176 ;; Parameters:    Size  Location     Type
  2177 ;;  a               2   10[BANK0 ] unsigned short 
  2178 ;;  b               2   12[BANK0 ] unsigned short 
  2179 ;; Auto vars:     Size  Location     Type
  2180 ;;		None
  2181 ;; Return value:  Size  Location     Type
  2182 ;;                  1    wreg      unsigned char 
  2183 ;; Registers used:
  2184 ;;		wreg, status,2, status,0
  2185 ;; Tracked objects:
  2186 ;;		On entry : 0/0
  2187 ;;		On exit  : 0/0
  2188 ;;		Unchanged: 0/0
  2189 ;; Data sizes:     COMMON   BANK0   BANK1   BANK3   BANK2
  2190 ;;      Params:         0       4       0       0       0
  2191 ;;      Locals:         0       0       0       0       0
  2192 ;;      Temps:          0       0       0       0       0
  2193 ;;      Totals:         0       4       0       0       0
  2194 ;;Total ram usage:        4 bytes
  2195 ;; Hardware stack levels used:    1
  2196 ;; Hardware stack levels required when called:    4
  2197 ;; This function calls:
  2198 ;;		Nothing
  2199 ;; This function is called by:
  2200 ;;		_readKeyboard
  2201 ;; This function uses a non-reentrant model
  2202 ;;
  2203                           
  2204                           
  2205                           ;psect for function _findKey
  2206  0647                     _findKey:	
  2207                           
  2208                           ;lib.h: 344: if(b == 0)
  2209                           
  2210                           ;incstack = 0
  2211                           ; Regs used in _findKey: [wreg+status,2+status,0]
  2212  0647  1283               	bcf	3,5	;RP0=0, select bank0
  2213  0648  1303               	bcf	3,6	;RP1=0, select bank0
  2214  0649  0860               	movf	findKey@b,w
  2215  064A  0461               	iorwf	findKey@b+1,w
  2216  064B  1D03               	btfss	3,2
  2217  064C  2E67               	goto	l2542
  2218                           
  2219                           ;lib.h: 345: {
  2220                           ;lib.h: 347: if(a == 3)
  2221  064D  3003               	movlw	3
  2222  064E  065E               	xorwf	findKey@a,w
  2223  064F  045F               	iorwf	findKey@a+1,w
  2224  0650  1D03               	btfss	3,2
  2225  0651  2E54               	goto	l2520
  2226                           
  2227                           ;lib.h: 348: {
  2228                           ;lib.h: 350: return '*';
  2229  0652  302A               	movlw	42
  2230                           
  2231                           ;lib.h: 352: }
  2232  0653  0008               	return
  2233  0654                     l2520:	
  2234                           
  2235                           ;lib.h: 353: else if(a == 2)
  2236  0654  3002               	movlw	2
  2237  0655  065E               	xorwf	findKey@a,w
  2238  0656  045F               	iorwf	findKey@a+1,w
  2239  0657  1D03               	btfss	3,2
  2240  0658  2E5B               	goto	l2528
  2241                           
  2242                           ;lib.h: 354: return '7';
  2243  0659  3037               	movlw	55
  2244  065A  0008               	return
  2245  065B                     l2528:	
  2246                           
  2247                           ;lib.h: 355: else if(a == 1)
  2248  065B  035E               	decf	findKey@a,w
  2249  065C  045F               	iorwf	findKey@a+1,w
  2250  065D  1D03               	btfss	3,2
  2251  065E  2E61               	goto	l2536
  2252                           
  2253                           ;lib.h: 356: return '4';
  2254  065F  3034               	movlw	52
  2255  0660  0008               	return
  2256  0661                     l2536:	
  2257                           
  2258                           ;lib.h: 357: else if(a == 0)
  2259  0661  085E               	movf	findKey@a,w
  2260  0662  045F               	iorwf	findKey@a+1,w
  2261  0663  1D03               	btfss	3,2
  2262  0664  0008               	return
  2263                           
  2264                           ;lib.h: 358: return '1';
  2265  0665  3031               	movlw	49
  2266                           
  2267                           ;lib.h: 359: }
  2268  0666  0008               	return
  2269  0667                     l2542:	
  2270                           
  2271                           ;lib.h: 361: else if(b == 1)
  2272  0667  0360               	decf	findKey@b,w
  2273  0668  0461               	iorwf	findKey@b+1,w
  2274  0669  1D03               	btfss	3,2
  2275  066A  2E85               	goto	l2574
  2276                           
  2277                           ;lib.h: 362: {
  2278                           ;lib.h: 364: if(a == 3)
  2279  066B  3003               	movlw	3
  2280  066C  065E               	xorwf	findKey@a,w
  2281  066D  045F               	iorwf	findKey@a+1,w
  2282  066E  1D03               	btfss	3,2
  2283  066F  2E72               	goto	l2552
  2284                           
  2285                           ;lib.h: 365: return '0';
  2286  0670  3030               	movlw	48
  2287  0671  0008               	return
  2288  0672                     l2552:	
  2289                           
  2290                           ;lib.h: 366: else if(a == 2)
  2291  0672  3002               	movlw	2
  2292  0673  065E               	xorwf	findKey@a,w
  2293  0674  045F               	iorwf	findKey@a+1,w
  2294  0675  1D03               	btfss	3,2
  2295  0676  2E79               	goto	l2560
  2296                           
  2297                           ;lib.h: 367: return '8';
  2298  0677  3038               	movlw	56
  2299  0678  0008               	return
  2300  0679                     l2560:	
  2301                           
  2302                           ;lib.h: 368: else if(a == 1)
  2303  0679  035E               	decf	findKey@a,w
  2304  067A  045F               	iorwf	findKey@a+1,w
  2305  067B  1D03               	btfss	3,2
  2306  067C  2E7F               	goto	l2568
  2307                           
  2308                           ;lib.h: 369: return '5';
  2309  067D  3035               	movlw	53
  2310  067E  0008               	return
  2311  067F                     l2568:	
  2312                           
  2313                           ;lib.h: 370: else if(a == 0)
  2314  067F  085E               	movf	findKey@a,w
  2315  0680  045F               	iorwf	findKey@a+1,w
  2316  0681  1D03               	btfss	3,2
  2317  0682  0008               	return
  2318                           
  2319                           ;lib.h: 371: return '2';
  2320  0683  3032               	movlw	50
  2321                           
  2322                           ;lib.h: 372: }
  2323  0684  0008               	return
  2324  0685                     l2574:	
  2325                           
  2326                           ;lib.h: 373: else if(b == 2)
  2327  0685  3002               	movlw	2
  2328  0686  0660               	xorwf	findKey@b,w
  2329  0687  0461               	iorwf	findKey@b+1,w
  2330  0688  1D03               	btfss	3,2
  2331  0689  2EA4               	goto	l2606
  2332                           
  2333                           ;lib.h: 374: {
  2334                           ;lib.h: 376: if(a == 3)
  2335  068A  3003               	movlw	3
  2336  068B  065E               	xorwf	findKey@a,w
  2337  068C  045F               	iorwf	findKey@a+1,w
  2338  068D  1D03               	btfss	3,2
  2339  068E  2E91               	goto	l2584
  2340                           
  2341                           ;lib.h: 377: return '#';
  2342  068F  3023               	movlw	35
  2343  0690  0008               	return
  2344  0691                     l2584:	
  2345                           
  2346                           ;lib.h: 378: else if(a == 2)
  2347  0691  3002               	movlw	2
  2348  0692  065E               	xorwf	findKey@a,w
  2349  0693  045F               	iorwf	findKey@a+1,w
  2350  0694  1D03               	btfss	3,2
  2351  0695  2E98               	goto	l2592
  2352                           
  2353                           ;lib.h: 379: return '9';
  2354  0696  3039               	movlw	57
  2355  0697  0008               	return
  2356  0698                     l2592:	
  2357                           
  2358                           ;lib.h: 380: else if(a == 1)
  2359  0698  035E               	decf	findKey@a,w
  2360  0699  045F               	iorwf	findKey@a+1,w
  2361  069A  1D03               	btfss	3,2
  2362  069B  2E9E               	goto	l2600
  2363                           
  2364                           ;lib.h: 381: return '6';
  2365  069C  3036               	movlw	54
  2366  069D  0008               	return
  2367  069E                     l2600:	
  2368                           
  2369                           ;lib.h: 382: else if(a == 0)
  2370  069E  085E               	movf	findKey@a,w
  2371  069F  045F               	iorwf	findKey@a+1,w
  2372  06A0  1D03               	btfss	3,2
  2373  06A1  0008               	return
  2374                           
  2375                           ;lib.h: 383: return '3';
  2376  06A2  3033               	movlw	51
  2377                           
  2378                           ;lib.h: 384: }
  2379  06A3  0008               	return
  2380  06A4                     l2606:	
  2381                           
  2382                           ;lib.h: 385: else if(b == 3)
  2383  06A4  3003               	movlw	3
  2384  06A5  0660               	xorwf	findKey@b,w
  2385  06A6  0461               	iorwf	findKey@b+1,w
  2386  06A7  1D03               	btfss	3,2
  2387  06A8  0008               	return
  2388                           
  2389                           ;lib.h: 386: {
  2390                           ;lib.h: 388: if(a == 3)
  2391  06A9  3003               	movlw	3
  2392  06AA  065E               	xorwf	findKey@a,w
  2393  06AB  045F               	iorwf	findKey@a+1,w
  2394  06AC  1D03               	btfss	3,2
  2395  06AD  2EB0               	goto	l2616
  2396                           
  2397                           ;lib.h: 389: return 'D';
  2398  06AE  3044               	movlw	68
  2399  06AF  0008               	return
  2400  06B0                     l2616:	
  2401                           
  2402                           ;lib.h: 390: else if(a == 2)
  2403  06B0  3002               	movlw	2
  2404  06B1  065E               	xorwf	findKey@a,w
  2405  06B2  045F               	iorwf	findKey@a+1,w
  2406  06B3  1D03               	btfss	3,2
  2407  06B4  2EB7               	goto	l2624
  2408                           
  2409                           ;lib.h: 391: return 'C';
  2410  06B5  3043               	movlw	67
  2411  06B6  0008               	return
  2412  06B7                     l2624:	
  2413                           
  2414                           ;lib.h: 392: else if(a == 1)
  2415  06B7  035E               	decf	findKey@a,w
  2416  06B8  045F               	iorwf	findKey@a+1,w
  2417  06B9  1D03               	btfss	3,2
  2418  06BA  2EBD               	goto	l2632
  2419                           
  2420                           ;lib.h: 393: return 'B';
  2421  06BB  3042               	movlw	66
  2422  06BC  0008               	return
  2423  06BD                     l2632:	
  2424                           
  2425                           ;lib.h: 394: else if(a == 0)
  2426  06BD  085E               	movf	findKey@a,w
  2427  06BE  045F               	iorwf	findKey@a+1,w
  2428  06BF  1D03               	btfss	3,2
  2429  06C0  0008               	return
  2430                           
  2431                           ;lib.h: 395: return 'A';
  2432  06C1  3041               	movlw	65
  2433  06C2  0008               	return
  2434  06C3                     __end_of_findKey:	
  2435                           
  2436                           	psect	text4
  2437  0E63                     __ptext4:	
  2438 ;; *************** function _Lcd_Write_String *****************
  2439 ;; Defined at:
  2440 ;;		line 233 in file "lib.h"
  2441 ;; Parameters:    Size  Location     Type
  2442 ;;  a               1    wreg     PTR unsigned char 
  2443 ;;		 -> STR_18(11), STR_14(15), STR_11(10), STR_10(9), 
  2444 ;;		 -> STR_9(17), STR_8(12), STR_7(15), STR_6(15), 
  2445 ;;		 -> STR_5(15), STR_4(9), STR_3(15), 
  2446 ;; Auto vars:     Size  Location     Type
  2447 ;;  a               1   17[BANK0 ] PTR unsigned char 
  2448 ;;		 -> STR_18(11), STR_14(15), STR_11(10), STR_10(9), 
  2449 ;;		 -> STR_9(17), STR_8(12), STR_7(15), STR_6(15), 
  2450 ;;		 -> STR_5(15), STR_4(9), STR_3(15), 
  2451 ;;  i               2   15[BANK0 ] int 
  2452 ;; Return value:  Size  Location     Type
  2453 ;;                  1    wreg      void 
  2454 ;; Registers used:
  2455 ;;		wreg, fsr0l, fsr0h, status,2, status,0, pclath, cstack
  2456 ;; Tracked objects:
  2457 ;;		On entry : 0/0
  2458 ;;		On exit  : 0/0
  2459 ;;		Unchanged: 0/0
  2460 ;; Data sizes:     COMMON   BANK0   BANK1   BANK3   BANK2
  2461 ;;      Params:         0       0       0       0       0
  2462 ;;      Locals:         0       3       0       0       0
  2463 ;;      Temps:          0       0       0       0       0
  2464 ;;      Totals:         0       3       0       0       0
  2465 ;;Total ram usage:        3 bytes
  2466 ;; Hardware stack levels used:    1
  2467 ;; Hardware stack levels required when called:    6
  2468 ;; This function calls:
  2469 ;;		_Lcd_Write_Char
  2470 ;; This function is called by:
  2471 ;;		_main
  2472 ;; This function uses a non-reentrant model
  2473 ;;
  2474                           
  2475                           
  2476                           ;psect for function _Lcd_Write_String
  2477  0E63                     _Lcd_Write_String:	
  2478                           
  2479                           ;incstack = 0
  2480                           ; Regs used in _Lcd_Write_String: [wreg-fsr0h+status,2+status,0+pclath+cstack]
  2481                           ;Lcd_Write_String@a stored from wreg
  2482  0E63  1283               	bcf	3,5	;RP0=0, select bank0
  2483  0E64  1303               	bcf	3,6	;RP1=0, select bank0
  2484  0E65  00E5               	movwf	Lcd_Write_String@a
  2485                           
  2486                           ;lib.h: 235: int i;
  2487                           ;lib.h: 236: for(i=0;a[i]!='\0';i++)
  2488  0E66  01E3               	clrf	Lcd_Write_String@i
  2489  0E67  01E4               	clrf	Lcd_Write_String@i+1
  2490  0E68                     l2696:	
  2491  0E68  0863               	movf	Lcd_Write_String@i,w
  2492  0E69  0765               	addwf	Lcd_Write_String@a,w
  2493  0E6A  0084               	movwf	4
  2494  0E6B  120A  118A  240A  120A  158A  	fcall	stringdir
  2495  0E70  3A00               	xorlw	0
  2496  0E71  1903               	btfsc	3,2
  2497  0E72  0008               	return
  2498                           
  2499                           ;lib.h: 237: Lcd_Write_Char(a[i]);
  2500  0E73  0863               	movf	Lcd_Write_String@i,w
  2501  0E74  0765               	addwf	Lcd_Write_String@a,w
  2502  0E75  0084               	movwf	4
  2503  0E76  120A  118A  240A  120A  158A  	fcall	stringdir
  2504  0E7B  120A  158A  2727  120A  158A  	fcall	_Lcd_Write_Char
  2505  0E80  3001               	movlw	1
  2506  0E81  1283               	bcf	3,5	;RP0=0, select bank0
  2507  0E82  1303               	bcf	3,6	;RP1=0, select bank0
  2508  0E83  07E3               	addwf	Lcd_Write_String@i,f
  2509  0E84  1803               	skipnc
  2510  0E85  0AE4               	incf	Lcd_Write_String@i+1,f
  2511  0E86  3000               	movlw	0
  2512  0E87  07E4               	addwf	Lcd_Write_String@i+1,f
  2513  0E88  2E68               	goto	l2696
  2514  0E89                     __end_of_Lcd_Write_String:	
  2515                           
  2516                           	psect	text5
  2517  0F27                     __ptext5:	
  2518 ;; *************** function _Lcd_Write_Char *****************
  2519 ;; Defined at:
  2520 ;;		line 216 in file "lib.h"
  2521 ;; Parameters:    Size  Location     Type
  2522 ;;  a               1    wreg     unsigned char 
  2523 ;; Auto vars:     Size  Location     Type
  2524 ;;  a               1   14[BANK0 ] unsigned char 
  2525 ;;  y               1   13[BANK0 ] unsigned char 
  2526 ;;  temp            1   12[BANK0 ] unsigned char 
  2527 ;; Return value:  Size  Location     Type
  2528 ;;                  1    wreg      void 
  2529 ;; Registers used:
  2530 ;;		wreg, status,2, status,0, pclath, cstack
  2531 ;; Tracked objects:
  2532 ;;		On entry : 0/0
  2533 ;;		On exit  : 0/0
  2534 ;;		Unchanged: 0/0
  2535 ;; Data sizes:     COMMON   BANK0   BANK1   BANK3   BANK2
  2536 ;;      Params:         0       0       0       0       0
  2537 ;;      Locals:         0       3       0       0       0
  2538 ;;      Temps:          0       1       0       0       0
  2539 ;;      Totals:         0       4       0       0       0
  2540 ;;Total ram usage:        4 bytes
  2541 ;; Hardware stack levels used:    1
  2542 ;; Hardware stack levels required when called:    5
  2543 ;; This function calls:
  2544 ;;		_Lcd_Port
  2545 ;; This function is called by:
  2546 ;;		_Lcd_Write_String
  2547 ;;		_main
  2548 ;; This function uses a non-reentrant model
  2549 ;;
  2550                           
  2551                           
  2552                           ;psect for function _Lcd_Write_Char
  2553  0F27                     _Lcd_Write_Char:	
  2554                           
  2555                           ;incstack = 0
  2556                           ; Regs used in _Lcd_Write_Char: [wreg+status,2+status,0+pclath+cstack]
  2557                           ;Lcd_Write_Char@a stored from wreg
  2558  0F27  1283               	bcf	3,5	;RP0=0, select bank0
  2559  0F28  1303               	bcf	3,6	;RP1=0, select bank0
  2560  0F29  00E2               	movwf	Lcd_Write_Char@a
  2561                           
  2562                           ;lib.h: 218: char temp,y;
  2563                           ;lib.h: 219: temp = a&0x0F;
  2564  0F2A  0862               	movf	Lcd_Write_Char@a,w
  2565  0F2B  390F               	andlw	15
  2566  0F2C  00DF               	movwf	??_Lcd_Write_Char
  2567  0F2D  085F               	movf	??_Lcd_Write_Char,w
  2568  0F2E  00E0               	movwf	Lcd_Write_Char@temp
  2569                           
  2570                           ;lib.h: 220: y = a&0xF0;
  2571  0F2F  0862               	movf	Lcd_Write_Char@a,w
  2572  0F30  39F0               	andlw	240
  2573  0F31  00DF               	movwf	??_Lcd_Write_Char
  2574  0F32  085F               	movf	??_Lcd_Write_Char,w
  2575  0F33  00E1               	movwf	Lcd_Write_Char@y
  2576                           
  2577                           ;lib.h: 221: RD1 = 1;
  2578  0F34  1488               	bsf	8,1	;volatile
  2579                           
  2580                           ;lib.h: 222: RD2=0;
  2581  0F35  1108               	bcf	8,2	;volatile
  2582                           
  2583                           ;lib.h: 223: Lcd_Port(y>>4);
  2584  0F36  0861               	movf	Lcd_Write_Char@y,w
  2585  0F37  00DF               	movwf	??_Lcd_Write_Char
  2586  0F38  3004               	movlw	4
  2587  0F39                     u2105:	
  2588  0F39  1003               	clrc
  2589  0F3A  0CDF               	rrf	??_Lcd_Write_Char,f
  2590  0F3B  3EFF               	addlw	-1
  2591  0F3C  1D03               	skipz
  2592  0F3D  2F39               	goto	u2105
  2593  0F3E  085F               	movf	??_Lcd_Write_Char,w
  2594  0F3F  120A  158A  2528  120A  158A  	fcall	_Lcd_Port
  2595                           
  2596                           ;lib.h: 224: RD0 = 1;
  2597  0F44  1283               	bcf	3,5	;RP0=0, select bank0
  2598  0F45  1303               	bcf	3,6	;RP1=0, select bank0
  2599  0F46  1408               	bsf	8,0	;volatile
  2600                           
  2601                           ;lib.h: 225: _delay((unsigned long)((40)*(20000000/4000000.0)));
  2602  0F47  3041               	movlw	65
  2603  0F48  1283               	bcf	3,5	;RP0=0, select bank0
  2604  0F49  1303               	bcf	3,6	;RP1=0, select bank0
  2605  0F4A  00DF               	movwf	??_Lcd_Write_Char
  2606  0F4B                     u2667:	
  2607  0F4B  0BDF               	decfsz	??_Lcd_Write_Char,f
  2608  0F4C  2F4B               	goto	u2667
  2609  0F4D  2F4E               	nop2
  2610                           
  2611                           ;lib.h: 226: RD0 = 0;
  2612  0F4E  1283               	bcf	3,5	;RP0=0, select bank0
  2613  0F4F  1303               	bcf	3,6	;RP1=0, select bank0
  2614  0F50  1008               	bcf	8,0	;volatile
  2615                           
  2616                           ;lib.h: 227: Lcd_Port(temp);
  2617  0F51  0860               	movf	Lcd_Write_Char@temp,w
  2618  0F52  120A  158A  2528  120A  158A  	fcall	_Lcd_Port
  2619                           
  2620                           ;lib.h: 228: RD0 = 1;
  2621  0F57  1283               	bcf	3,5	;RP0=0, select bank0
  2622  0F58  1303               	bcf	3,6	;RP1=0, select bank0
  2623  0F59  1408               	bsf	8,0	;volatile
  2624                           
  2625                           ;lib.h: 229: _delay((unsigned long)((40)*(20000000/4000000.0)));
  2626  0F5A  3041               	movlw	65
  2627  0F5B  1283               	bcf	3,5	;RP0=0, select bank0
  2628  0F5C  1303               	bcf	3,6	;RP1=0, select bank0
  2629  0F5D  00DF               	movwf	??_Lcd_Write_Char
  2630  0F5E                     u2677:	
  2631  0F5E  0BDF               	decfsz	??_Lcd_Write_Char,f
  2632  0F5F  2F5E               	goto	u2677
  2633  0F60  2F61               	nop2
  2634                           
  2635                           ;lib.h: 230: RD0 = 0;
  2636  0F61  1283               	bcf	3,5	;RP0=0, select bank0
  2637  0F62  1303               	bcf	3,6	;RP1=0, select bank0
  2638  0F63  1008               	bcf	8,0	;volatile
  2639  0F64  0008               	return
  2640  0F65                     __end_of_Lcd_Write_Char:	
  2641                           
  2642                           	psect	text6
  2643  06C3                     __ptext6:	
  2644 ;; *************** function _Lcd_Set_Cursor *****************
  2645 ;; Defined at:
  2646 ;;		line 176 in file "lib.h"
  2647 ;; Parameters:    Size  Location     Type
  2648 ;;  a               1    wreg     unsigned char 
  2649 ;;  b               1   14[BANK0 ] unsigned char 
  2650 ;; Auto vars:     Size  Location     Type
  2651 ;;  a               1    0[BANK1 ] unsigned char 
  2652 ;;  temp            1    3[BANK1 ] unsigned char 
  2653 ;;  y               1    2[BANK1 ] unsigned char 
  2654 ;;  z               1    1[BANK1 ] unsigned char 
  2655 ;; Return value:  Size  Location     Type
  2656 ;;                  1    wreg      void 
  2657 ;; Registers used:
  2658 ;;		wreg, status,2, status,0, pclath, cstack
  2659 ;; Tracked objects:
  2660 ;;		On entry : 0/0
  2661 ;;		On exit  : 0/0
  2662 ;;		Unchanged: 0/0
  2663 ;; Data sizes:     COMMON   BANK0   BANK1   BANK3   BANK2
  2664 ;;      Params:         0       1       0       0       0
  2665 ;;      Locals:         0       0       4       0       0
  2666 ;;      Temps:          0       2       0       0       0
  2667 ;;      Totals:         0       3       4       0       0
  2668 ;;Total ram usage:        7 bytes
  2669 ;; Hardware stack levels used:    1
  2670 ;; Hardware stack levels required when called:    6
  2671 ;; This function calls:
  2672 ;;		_Lcd_Cmd
  2673 ;; This function is called by:
  2674 ;;		_main
  2675 ;; This function uses a non-reentrant model
  2676 ;;
  2677                           
  2678                           
  2679                           ;psect for function _Lcd_Set_Cursor
  2680  06C3                     _Lcd_Set_Cursor:	
  2681                           
  2682                           ;incstack = 0
  2683                           ; Regs used in _Lcd_Set_Cursor: [wreg+status,2+status,0+pclath+cstack]
  2684                           ;Lcd_Set_Cursor@a stored from wreg
  2685  06C3  1683               	bsf	3,5	;RP0=1, select bank1
  2686  06C4  1303               	bcf	3,6	;RP1=0, select bank1
  2687  06C5  00EA               	movwf	Lcd_Set_Cursor@a^(0+128)
  2688                           
  2689                           ;lib.h: 178: char temp,z,y;
  2690                           ;lib.h: 179: if(a == 1)
  2691  06C6  036A               	decf	Lcd_Set_Cursor@a^(0+128),w
  2692  06C7  1D03               	btfss	3,2
  2693  06C8  2EF8               	goto	l2670
  2694                           
  2695                           ;lib.h: 180: {
  2696                           ;lib.h: 181: temp = 0x80 + b - 1;
  2697  06C9  1283               	bcf	3,5	;RP0=0, select bank0
  2698  06CA  1303               	bcf	3,6	;RP1=0, select bank0
  2699  06CB  0862               	movf	Lcd_Set_Cursor@b,w
  2700  06CC  3E7F               	addlw	127
  2701  06CD  00E3               	movwf	??_Lcd_Set_Cursor
  2702  06CE  0863               	movf	??_Lcd_Set_Cursor,w
  2703  06CF  1683               	bsf	3,5	;RP0=1, select bank1
  2704  06D0  1303               	bcf	3,6	;RP1=0, select bank1
  2705  06D1  00ED               	movwf	Lcd_Set_Cursor@temp^(0+128)
  2706                           
  2707                           ;lib.h: 182: z = temp>>4;
  2708  06D2  086D               	movf	Lcd_Set_Cursor@temp^(0+128),w
  2709  06D3  1283               	bcf	3,5	;RP0=0, select bank0
  2710  06D4  1303               	bcf	3,6	;RP1=0, select bank0
  2711  06D5  00E3               	movwf	??_Lcd_Set_Cursor
  2712  06D6  3004               	movlw	4
  2713  06D7                     u2325:	
  2714  06D7  1003               	clrc
  2715  06D8  0CE3               	rrf	??_Lcd_Set_Cursor,f
  2716  06D9  3EFF               	addlw	-1
  2717  06DA  1D03               	skipz
  2718  06DB  2ED7               	goto	u2325
  2719  06DC  0863               	movf	??_Lcd_Set_Cursor,w
  2720  06DD  00E4               	movwf	??_Lcd_Set_Cursor+1
  2721  06DE  0864               	movf	??_Lcd_Set_Cursor+1,w
  2722  06DF  1683               	bsf	3,5	;RP0=1, select bank1
  2723  06E0  1303               	bcf	3,6	;RP1=0, select bank1
  2724  06E1  00EB               	movwf	Lcd_Set_Cursor@z^(0+128)
  2725                           
  2726                           ;lib.h: 183: y = temp & 0x0F;
  2727  06E2  086D               	movf	Lcd_Set_Cursor@temp^(0+128),w
  2728  06E3  390F               	andlw	15
  2729  06E4  1283               	bcf	3,5	;RP0=0, select bank0
  2730  06E5  1303               	bcf	3,6	;RP1=0, select bank0
  2731  06E6  00E3               	movwf	??_Lcd_Set_Cursor
  2732  06E7  0863               	movf	??_Lcd_Set_Cursor,w
  2733  06E8  1683               	bsf	3,5	;RP0=1, select bank1
  2734  06E9  1303               	bcf	3,6	;RP1=0, select bank1
  2735  06EA  00EC               	movwf	Lcd_Set_Cursor@y^(0+128)
  2736                           
  2737                           ;lib.h: 184: Lcd_Cmd(z);
  2738  06EB  086B               	movf	Lcd_Set_Cursor@z^(0+128),w
  2739  06EC  120A  158A  25E1  120A  118A  	fcall	_Lcd_Cmd
  2740                           
  2741                           ;lib.h: 185: Lcd_Cmd(y);
  2742  06F1  1683               	bsf	3,5	;RP0=1, select bank1
  2743  06F2  1303               	bcf	3,6	;RP1=0, select bank1
  2744  06F3  086C               	movf	Lcd_Set_Cursor@y^(0+128),w
  2745  06F4  120A  158A  25E1   	fcall	_Lcd_Cmd
  2746                           
  2747                           ;lib.h: 186: }
  2748  06F7  0008               	return
  2749  06F8                     l2670:	
  2750                           
  2751                           ;lib.h: 187: else if(a == 2)
  2752  06F8  3002               	movlw	2
  2753  06F9  1683               	bsf	3,5	;RP0=1, select bank1
  2754  06FA  1303               	bcf	3,6	;RP1=0, select bank1
  2755  06FB  066A               	xorwf	Lcd_Set_Cursor@a^(0+128),w
  2756  06FC  1D03               	btfss	3,2
  2757  06FD  0008               	return
  2758                           
  2759                           ;lib.h: 188: {
  2760                           ;lib.h: 189: temp = 0xC0 + b - 1;
  2761  06FE  1283               	bcf	3,5	;RP0=0, select bank0
  2762  06FF  1303               	bcf	3,6	;RP1=0, select bank0
  2763  0700  0862               	movf	Lcd_Set_Cursor@b,w
  2764  0701  3EBF               	addlw	191
  2765  0702  00E3               	movwf	??_Lcd_Set_Cursor
  2766  0703  0863               	movf	??_Lcd_Set_Cursor,w
  2767  0704  1683               	bsf	3,5	;RP0=1, select bank1
  2768  0705  1303               	bcf	3,6	;RP1=0, select bank1
  2769  0706  00ED               	movwf	Lcd_Set_Cursor@temp^(0+128)
  2770                           
  2771                           ;lib.h: 190: z = temp>>4;
  2772  0707  086D               	movf	Lcd_Set_Cursor@temp^(0+128),w
  2773  0708  1283               	bcf	3,5	;RP0=0, select bank0
  2774  0709  1303               	bcf	3,6	;RP1=0, select bank0
  2775  070A  00E3               	movwf	??_Lcd_Set_Cursor
  2776  070B  3004               	movlw	4
  2777  070C                     u2345:	
  2778  070C  1003               	clrc
  2779  070D  0CE3               	rrf	??_Lcd_Set_Cursor,f
  2780  070E  3EFF               	addlw	-1
  2781  070F  1D03               	skipz
  2782  0710  2F0C               	goto	u2345
  2783  0711  0863               	movf	??_Lcd_Set_Cursor,w
  2784  0712  00E4               	movwf	??_Lcd_Set_Cursor+1
  2785  0713  0864               	movf	??_Lcd_Set_Cursor+1,w
  2786  0714  1683               	bsf	3,5	;RP0=1, select bank1
  2787  0715  1303               	bcf	3,6	;RP1=0, select bank1
  2788  0716  00EB               	movwf	Lcd_Set_Cursor@z^(0+128)
  2789                           
  2790                           ;lib.h: 191: y = temp & 0x0F;
  2791  0717  086D               	movf	Lcd_Set_Cursor@temp^(0+128),w
  2792  0718  390F               	andlw	15
  2793  0719  1283               	bcf	3,5	;RP0=0, select bank0
  2794  071A  1303               	bcf	3,6	;RP1=0, select bank0
  2795  071B  00E3               	movwf	??_Lcd_Set_Cursor
  2796  071C  0863               	movf	??_Lcd_Set_Cursor,w
  2797  071D  1683               	bsf	3,5	;RP0=1, select bank1
  2798  071E  1303               	bcf	3,6	;RP1=0, select bank1
  2799  071F  00EC               	movwf	Lcd_Set_Cursor@y^(0+128)
  2800                           
  2801                           ;lib.h: 192: Lcd_Cmd(z);
  2802  0720  086B               	movf	Lcd_Set_Cursor@z^(0+128),w
  2803  0721  120A  158A  25E1  120A  118A  	fcall	_Lcd_Cmd
  2804                           
  2805                           ;lib.h: 193: Lcd_Cmd(y);
  2806  0726  1683               	bsf	3,5	;RP0=1, select bank1
  2807  0727  1303               	bcf	3,6	;RP1=0, select bank1
  2808  0728  086C               	movf	Lcd_Set_Cursor@y^(0+128),w
  2809  0729  120A  158A  25E1   	fcall	_Lcd_Cmd
  2810  072C  0008               	return
  2811  072D                     __end_of_Lcd_Set_Cursor:	
  2812                           
  2813                           	psect	text7
  2814  0790                     __ptext7:	
  2815 ;; *************** function _Lcd_Init *****************
  2816 ;; Defined at:
  2817 ;;		line 197 in file "lib.h"
  2818 ;; Parameters:    Size  Location     Type
  2819 ;;		None
  2820 ;; Auto vars:     Size  Location     Type
  2821 ;;		None
  2822 ;; Return value:  Size  Location     Type
  2823 ;;                  1    wreg      void 
  2824 ;; Registers used:
  2825 ;;		wreg, status,2, status,0, pclath, cstack
  2826 ;; Tracked objects:
  2827 ;;		On entry : 0/0
  2828 ;;		On exit  : 0/0
  2829 ;;		Unchanged: 0/0
  2830 ;; Data sizes:     COMMON   BANK0   BANK1   BANK3   BANK2
  2831 ;;      Params:         0       0       0       0       0
  2832 ;;      Locals:         0       0       0       0       0
  2833 ;;      Temps:          0       2       0       0       0
  2834 ;;      Totals:         0       2       0       0       0
  2835 ;;Total ram usage:        2 bytes
  2836 ;; Hardware stack levels used:    1
  2837 ;; Hardware stack levels required when called:    6
  2838 ;; This function calls:
  2839 ;;		_Lcd_Cmd
  2840 ;;		_Lcd_Port
  2841 ;; This function is called by:
  2842 ;;		_main
  2843 ;; This function uses a non-reentrant model
  2844 ;;
  2845                           
  2846                           
  2847                           ;psect for function _Lcd_Init
  2848  0790                     _Lcd_Init:	
  2849                           
  2850                           ;lib.h: 199: Lcd_Port(0x00);
  2851                           
  2852                           ;incstack = 0
  2853                           ; Regs used in _Lcd_Init: [wreg+status,2+status,0+pclath+cstack]
  2854  0790  3000               	movlw	0
  2855  0791  120A  158A  2528  120A  118A  	fcall	_Lcd_Port
  2856                           
  2857                           ;lib.h: 200: _delay((unsigned long)((20)*(20000000/4000.0)));
  2858  0796  3082               	movlw	130
  2859  0797  1283               	bcf	3,5	;RP0=0, select bank0
  2860  0798  1303               	bcf	3,6	;RP1=0, select bank0
  2861  0799  00E3               	movwf	??_Lcd_Init+1
  2862  079A  30DD               	movlw	221
  2863  079B  00E2               	movwf	??_Lcd_Init
  2864  079C                     u2687:	
  2865  079C  0BE2               	decfsz	??_Lcd_Init,f
  2866  079D  2F9C               	goto	u2687
  2867  079E  0BE3               	decfsz	??_Lcd_Init+1,f
  2868  079F  2F9C               	goto	u2687
  2869                           
  2870                           ;lib.h: 201: Lcd_Cmd(0x03);
  2871  07A0  3003               	movlw	3
  2872  07A1  120A  158A  25E1  120A  118A  	fcall	_Lcd_Cmd
  2873                           
  2874                           ;lib.h: 202: _delay((unsigned long)((5)*(20000000/4000.0)));
  2875  07A6  3021               	movlw	33
  2876  07A7  1283               	bcf	3,5	;RP0=0, select bank0
  2877  07A8  1303               	bcf	3,6	;RP1=0, select bank0
  2878  07A9  00E3               	movwf	??_Lcd_Init+1
  2879  07AA  3075               	movlw	117
  2880  07AB  00E2               	movwf	??_Lcd_Init
  2881  07AC                     u2697:	
  2882  07AC  0BE2               	decfsz	??_Lcd_Init,f
  2883  07AD  2FAC               	goto	u2697
  2884  07AE  0BE3               	decfsz	??_Lcd_Init+1,f
  2885  07AF  2FAC               	goto	u2697
  2886  07B0  2FB1               	nop2
  2887                           
  2888                           ;lib.h: 203: Lcd_Cmd(0x03);
  2889  07B1  3003               	movlw	3
  2890  07B2  120A  158A  25E1  120A  118A  	fcall	_Lcd_Cmd
  2891                           
  2892                           ;lib.h: 204: _delay((unsigned long)((11)*(20000000/4000.0)));
  2893  07B7  3048               	movlw	72
  2894  07B8  1283               	bcf	3,5	;RP0=0, select bank0
  2895  07B9  1303               	bcf	3,6	;RP1=0, select bank0
  2896  07BA  00E3               	movwf	??_Lcd_Init+1
  2897  07BB  306B               	movlw	107
  2898  07BC  00E2               	movwf	??_Lcd_Init
  2899  07BD                     u2707:	
  2900  07BD  0BE2               	decfsz	??_Lcd_Init,f
  2901  07BE  2FBD               	goto	u2707
  2902  07BF  0BE3               	decfsz	??_Lcd_Init+1,f
  2903  07C0  2FBD               	goto	u2707
  2904  07C1  2FC2               	nop2
  2905                           
  2906                           ;lib.h: 205: Lcd_Cmd(0x03);
  2907  07C2  3003               	movlw	3
  2908  07C3  120A  158A  25E1  120A  118A  	fcall	_Lcd_Cmd
  2909                           
  2910                           ;lib.h: 207: Lcd_Cmd(0x02);
  2911  07C8  3002               	movlw	2
  2912  07C9  120A  158A  25E1  120A  118A  	fcall	_Lcd_Cmd
  2913                           
  2914                           ;lib.h: 208: Lcd_Cmd(0x02);
  2915  07CE  3002               	movlw	2
  2916  07CF  120A  158A  25E1  120A  118A  	fcall	_Lcd_Cmd
  2917                           
  2918                           ;lib.h: 209: Lcd_Cmd(0x08);
  2919  07D4  3008               	movlw	8
  2920  07D5  120A  158A  25E1  120A  118A  	fcall	_Lcd_Cmd
  2921                           
  2922                           ;lib.h: 210: Lcd_Cmd(0x00);
  2923  07DA  3000               	movlw	0
  2924  07DB  120A  158A  25E1  120A  118A  	fcall	_Lcd_Cmd
  2925                           
  2926                           ;lib.h: 211: Lcd_Cmd(0x0C);
  2927  07E0  300C               	movlw	12
  2928  07E1  120A  158A  25E1  120A  118A  	fcall	_Lcd_Cmd
  2929                           
  2930                           ;lib.h: 212: Lcd_Cmd(0x00);
  2931  07E6  3000               	movlw	0
  2932  07E7  120A  158A  25E1  120A  118A  	fcall	_Lcd_Cmd
  2933                           
  2934                           ;lib.h: 213: Lcd_Cmd(0x06);
  2935  07EC  3006               	movlw	6
  2936  07ED  120A  158A  25E1   	fcall	_Lcd_Cmd
  2937  07F0  0008               	return
  2938  07F1                     __end_of_Lcd_Init:	
  2939                           
  2940                           	psect	text8
  2941  07F1                     __ptext8:	
  2942 ;; *************** function _Lcd_Clear *****************
  2943 ;; Defined at:
  2944 ;;		line 170 in file "lib.h"
  2945 ;; Parameters:    Size  Location     Type
  2946 ;;		None
  2947 ;; Auto vars:     Size  Location     Type
  2948 ;;		None
  2949 ;; Return value:  Size  Location     Type
  2950 ;;                  2  226[None  ] int 
  2951 ;; Registers used:
  2952 ;;		wreg, status,2, status,0, pclath, cstack
  2953 ;; Tracked objects:
  2954 ;;		On entry : 0/0
  2955 ;;		On exit  : 0/0
  2956 ;;		Unchanged: 0/0
  2957 ;; Data sizes:     COMMON   BANK0   BANK1   BANK3   BANK2
  2958 ;;      Params:         0       0       0       0       0
  2959 ;;      Locals:         0       0       0       0       0
  2960 ;;      Temps:          0       0       0       0       0
  2961 ;;      Totals:         0       0       0       0       0
  2962 ;;Total ram usage:        0 bytes
  2963 ;; Hardware stack levels used:    1
  2964 ;; Hardware stack levels required when called:    6
  2965 ;; This function calls:
  2966 ;;		_Lcd_Cmd
  2967 ;; This function is called by:
  2968 ;;		_main
  2969 ;; This function uses a non-reentrant model
  2970 ;;
  2971                           
  2972                           
  2973                           ;psect for function _Lcd_Clear
  2974  07F1                     _Lcd_Clear:	
  2975                           
  2976                           ;lib.h: 172: Lcd_Cmd(0);
  2977                           
  2978                           ;incstack = 0
  2979                           ; Regs used in _Lcd_Clear: [wreg+status,2+status,0+pclath+cstack]
  2980  07F1  3000               	movlw	0
  2981  07F2  120A  158A  25E1  120A  118A  	fcall	_Lcd_Cmd
  2982                           
  2983                           ;lib.h: 173: Lcd_Cmd(1);
  2984  07F7  3001               	movlw	1
  2985  07F8  120A  158A  25E1   	fcall	_Lcd_Cmd
  2986  07FB  0008               	return
  2987  07FC                     __end_of_Lcd_Clear:	
  2988                           
  2989                           	psect	text9
  2990  0DE1                     __ptext9:	
  2991 ;; *************** function _Lcd_Cmd *****************
  2992 ;; Defined at:
  2993 ;;		line 160 in file "lib.h"
  2994 ;; Parameters:    Size  Location     Type
  2995 ;;  a               1    wreg     unsigned char 
  2996 ;; Auto vars:     Size  Location     Type
  2997 ;;  a               1   13[BANK0 ] unsigned char 
  2998 ;; Return value:  Size  Location     Type
  2999 ;;                  1    wreg      void 
  3000 ;; Registers used:
  3001 ;;		wreg, status,2, status,0, pclath, cstack
  3002 ;; Tracked objects:
  3003 ;;		On entry : 0/0
  3004 ;;		On exit  : 0/0
  3005 ;;		Unchanged: 0/0
  3006 ;; Data sizes:     COMMON   BANK0   BANK1   BANK3   BANK2
  3007 ;;      Params:         0       0       0       0       0
  3008 ;;      Locals:         0       1       0       0       0
  3009 ;;      Temps:          0       2       0       0       0
  3010 ;;      Totals:         0       3       0       0       0
  3011 ;;Total ram usage:        3 bytes
  3012 ;; Hardware stack levels used:    1
  3013 ;; Hardware stack levels required when called:    5
  3014 ;; This function calls:
  3015 ;;		_Lcd_Port
  3016 ;; This function is called by:
  3017 ;;		_Lcd_Clear
  3018 ;;		_Lcd_Set_Cursor
  3019 ;;		_Lcd_Init
  3020 ;;		_Lcd_Shift_Right
  3021 ;;		_Lcd_Shift_Left
  3022 ;; This function uses a non-reentrant model
  3023 ;;
  3024                           
  3025                           
  3026                           ;psect for function _Lcd_Cmd
  3027  0DE1                     _Lcd_Cmd:	
  3028                           
  3029                           ;incstack = 0
  3030                           ; Regs used in _Lcd_Cmd: [wreg+status,2+status,0+pclath+cstack]
  3031                           ;Lcd_Cmd@a stored from wreg
  3032  0DE1  1283               	bcf	3,5	;RP0=0, select bank0
  3033  0DE2  1303               	bcf	3,6	;RP1=0, select bank0
  3034  0DE3  00E1               	movwf	Lcd_Cmd@a
  3035                           
  3036                           ;lib.h: 162: RD1 = 0;
  3037  0DE4  1088               	bcf	8,1	;volatile
  3038                           
  3039                           ;lib.h: 163: RD2=0;
  3040  0DE5  1108               	bcf	8,2	;volatile
  3041                           
  3042                           ;lib.h: 164: Lcd_Port(a);
  3043  0DE6  0861               	movf	Lcd_Cmd@a,w
  3044  0DE7  120A  158A  2528  120A  158A  	fcall	_Lcd_Port
  3045                           
  3046                           ;lib.h: 165: RD0 = 1;
  3047  0DEC  1283               	bcf	3,5	;RP0=0, select bank0
  3048  0DED  1303               	bcf	3,6	;RP1=0, select bank0
  3049  0DEE  1408               	bsf	8,0	;volatile
  3050                           
  3051                           ;lib.h: 166: _delay((unsigned long)((4)*(20000000/4000.0)));
  3052  0DEF  301A               	movlw	26
  3053  0DF0  1283               	bcf	3,5	;RP0=0, select bank0
  3054  0DF1  1303               	bcf	3,6	;RP1=0, select bank0
  3055  0DF2  00E0               	movwf	??_Lcd_Cmd+1
  3056  0DF3  30F7               	movlw	247
  3057  0DF4  00DF               	movwf	??_Lcd_Cmd
  3058  0DF5                     u2717:	
  3059  0DF5  0BDF               	decfsz	??_Lcd_Cmd,f
  3060  0DF6  2DF5               	goto	u2717
  3061  0DF7  0BE0               	decfsz	??_Lcd_Cmd+1,f
  3062  0DF8  2DF5               	goto	u2717
  3063  0DF9  2DFA               	nop2
  3064                           
  3065                           ;lib.h: 167: RD0 = 0;
  3066  0DFA  1283               	bcf	3,5	;RP0=0, select bank0
  3067  0DFB  1303               	bcf	3,6	;RP1=0, select bank0
  3068  0DFC  1008               	bcf	8,0	;volatile
  3069  0DFD  0008               	return
  3070  0DFE                     __end_of_Lcd_Cmd:	
  3071                           
  3072                           	psect	text10
  3073  0D28                     __ptext10:	
  3074 ;; *************** function _Lcd_Port *****************
  3075 ;; Defined at:
  3076 ;;		line 138 in file "lib.h"
  3077 ;; Parameters:    Size  Location     Type
  3078 ;;  a               1    wreg     unsigned char 
  3079 ;; Auto vars:     Size  Location     Type
  3080 ;;  a               1   10[BANK0 ] unsigned char 
  3081 ;; Return value:  Size  Location     Type
  3082 ;;                  1    wreg      void 
  3083 ;; Registers used:
  3084 ;;		wreg
  3085 ;; Tracked objects:
  3086 ;;		On entry : 0/0
  3087 ;;		On exit  : 0/0
  3088 ;;		Unchanged: 0/0
  3089 ;; Data sizes:     COMMON   BANK0   BANK1   BANK3   BANK2
  3090 ;;      Params:         0       0       0       0       0
  3091 ;;      Locals:         0       1       0       0       0
  3092 ;;      Temps:          0       0       0       0       0
  3093 ;;      Totals:         0       1       0       0       0
  3094 ;;Total ram usage:        1 bytes
  3095 ;; Hardware stack levels used:    1
  3096 ;; Hardware stack levels required when called:    4
  3097 ;; This function calls:
  3098 ;;		Nothing
  3099 ;; This function is called by:
  3100 ;;		_Lcd_Cmd
  3101 ;;		_Lcd_Init
  3102 ;;		_Lcd_Write_Char
  3103 ;; This function uses a non-reentrant model
  3104 ;;
  3105                           
  3106                           
  3107                           ;psect for function _Lcd_Port
  3108  0D28                     _Lcd_Port:	
  3109                           
  3110                           ;incstack = 0
  3111                           ; Regs used in _Lcd_Port: [wreg]
  3112                           ;Lcd_Port@a stored from wreg
  3113  0D28  1283               	bcf	3,5	;RP0=0, select bank0
  3114  0D29  1303               	bcf	3,6	;RP1=0, select bank0
  3115  0D2A  00DE               	movwf	Lcd_Port@a
  3116                           
  3117                           ;lib.h: 140: if(a & 1)
  3118  0D2B  1C5E               	btfss	Lcd_Port@a,0
  3119  0D2C  2D2F               	goto	l213
  3120                           
  3121                           ;lib.h: 141: RD4 = 1;
  3122  0D2D  1608               	bsf	8,4	;volatile
  3123  0D2E  2D30               	goto	l214
  3124  0D2F                     l213:	
  3125                           
  3126                           ;lib.h: 142: else
  3127                           ;lib.h: 143: RD4 = 0;
  3128  0D2F  1208               	bcf	8,4	;volatile
  3129  0D30                     l214:	
  3130                           
  3131                           ;lib.h: 145: if(a & 2)
  3132  0D30  1CDE               	btfss	Lcd_Port@a,1
  3133  0D31  2D34               	goto	l215
  3134                           
  3135                           ;lib.h: 146: RD5 = 1;
  3136  0D32  1688               	bsf	8,5	;volatile
  3137  0D33  2D35               	goto	l216
  3138  0D34                     l215:	
  3139                           
  3140                           ;lib.h: 147: else
  3141                           ;lib.h: 148: RD5 = 0;
  3142  0D34  1288               	bcf	8,5	;volatile
  3143  0D35                     l216:	
  3144                           
  3145                           ;lib.h: 150: if(a & 4)
  3146  0D35  1D5E               	btfss	Lcd_Port@a,2
  3147  0D36  2D39               	goto	l217
  3148                           
  3149                           ;lib.h: 151: RD6 = 1;
  3150  0D37  1708               	bsf	8,6	;volatile
  3151  0D38  2D3A               	goto	l218
  3152  0D39                     l217:	
  3153                           
  3154                           ;lib.h: 152: else
  3155                           ;lib.h: 153: RD6 = 0;
  3156  0D39  1308               	bcf	8,6	;volatile
  3157  0D3A                     l218:	
  3158                           
  3159                           ;lib.h: 155: if(a & 8)
  3160  0D3A  1DDE               	btfss	Lcd_Port@a,3
  3161  0D3B  2D3E               	goto	l219
  3162                           
  3163                           ;lib.h: 156: RD7 = 1;
  3164  0D3C  1788               	bsf	8,7	;volatile
  3165  0D3D  0008               	return
  3166  0D3E                     l219:	
  3167                           
  3168                           ;lib.h: 157: else
  3169                           ;lib.h: 158: RD7 = 0;
  3170  0D3E  1388               	bcf	8,7	;volatile
  3171  0D3F  0008               	return
  3172  0D40                     __end_of_Lcd_Port:	
  3173                           
  3174                           	psect	text11
  3175  072D                     __ptext11:	
  3176 ;; *************** function _GSM_Init *****************
  3177 ;; Defined at:
  3178 ;;		line 73 in file "lib.h"
  3179 ;; Parameters:    Size  Location     Type
  3180 ;;		None
  3181 ;; Auto vars:     Size  Location     Type
  3182 ;;  i               2    0        int 
  3183 ;; Return value:  Size  Location     Type
  3184 ;;                  1    wreg      void 
  3185 ;; Registers used:
  3186 ;;		wreg, fsr0l, fsr0h, status,2, status,0, btemp+1, pclath, cstack
  3187 ;; Tracked objects:
  3188 ;;		On entry : 0/0
  3189 ;;		On exit  : 0/0
  3190 ;;		Unchanged: 0/0
  3191 ;; Data sizes:     COMMON   BANK0   BANK1   BANK3   BANK2
  3192 ;;      Params:         0       0       0       0       0
  3193 ;;      Locals:         0       0       0       0       0
  3194 ;;      Temps:          0       0       3       0       0
  3195 ;;      Totals:         0       0       3       0       0
  3196 ;;Total ram usage:        3 bytes
  3197 ;; Hardware stack levels used:    1
  3198 ;; Hardware stack levels required when called:    6
  3199 ;; This function calls:
  3200 ;;		_UART_Init
  3201 ;;		_UART_Send
  3202 ;;		_UART_Write
  3203 ;; This function is called by:
  3204 ;;		_main
  3205 ;; This function uses a non-reentrant model
  3206 ;;
  3207                           
  3208                           
  3209                           ;psect for function _GSM_Init
  3210  072D                     _GSM_Init:	
  3211                           
  3212                           ;lib.h: 75: int i;
  3213                           ;lib.h: 76: UART_Init();
  3214                           
  3215                           ;incstack = 0
  3216                           ; Regs used in _GSM_Init: [wreg-fsr0h+status,2+status,0+btemp+1+pclath+cstack]
  3217  072D  120A  158A  25C4  120A  118A  	fcall	_UART_Init
  3218                           
  3219                           ;lib.h: 77: UART_Send(AT);
  3220  0732  303E               	movlw	(low (_AT| 0))& (0+255)
  3221  0733  1283               	bcf	3,5	;RP0=0, select bank0
  3222  0734  1303               	bcf	3,6	;RP1=0, select bank0
  3223  0735  00E1               	movwf	UART_Send@s
  3224  0736  3000               	movlw	0
  3225  0737  00E2               	movwf	UART_Send@s+1
  3226  0738  120A  158A  27AF  120A  118A  	fcall	_UART_Send
  3227                           
  3228                           ;lib.h: 78: UART_Write(0X0D);
  3229  073D  300D               	movlw	13
  3230  073E  120A  158A  2512  120A  118A  	fcall	_UART_Write
  3231                           
  3232                           ;lib.h: 79: _delay((unsigned long)((100)*(20000000/4000.0)));
  3233  0743  3003               	movlw	3
  3234  0744  1683               	bsf	3,5	;RP0=1, select bank1
  3235  0745  1303               	bcf	3,6	;RP1=0, select bank1
  3236  0746  00EE               	movwf	(??_GSM_Init^(0+128)+2)
  3237  0747  308A               	movlw	138
  3238  0748  00ED               	movwf	(??_GSM_Init^(0+128)+1)
  3239  0749  3055               	movlw	85
  3240  074A  00EC               	movwf	??_GSM_Init^(0+128)
  3241  074B                     u2727:	
  3242  074B  0BEC               	decfsz	??_GSM_Init^(0+128),f
  3243  074C  2F4B               	goto	u2727
  3244  074D  0BED               	decfsz	(??_GSM_Init^(0+128)+1),f
  3245  074E  2F4B               	goto	u2727
  3246  074F  0BEE               	decfsz	(??_GSM_Init^(0+128)+2),f
  3247  0750  2F4B               	goto	u2727
  3248                           
  3249                           ;lib.h: 80: UART_Send(noecho);
  3250  0751  3039               	movlw	(low (_noecho| 0))& (0+255)
  3251  0752  1283               	bcf	3,5	;RP0=0, select bank0
  3252  0753  1303               	bcf	3,6	;RP1=0, select bank0
  3253  0754  00E1               	movwf	UART_Send@s
  3254  0755  3000               	movlw	0
  3255  0756  00E2               	movwf	UART_Send@s+1
  3256  0757  120A  158A  27AF  120A  118A  	fcall	_UART_Send
  3257                           
  3258                           ;lib.h: 81: UART_Write(0X0D);
  3259  075C  300D               	movlw	13
  3260  075D  120A  158A  2512  120A  118A  	fcall	_UART_Write
  3261                           
  3262                           ;lib.h: 82: _delay((unsigned long)((100)*(20000000/4000.0)));
  3263  0762  3003               	movlw	3
  3264  0763  1683               	bsf	3,5	;RP0=1, select bank1
  3265  0764  1303               	bcf	3,6	;RP1=0, select bank1
  3266  0765  00EE               	movwf	(??_GSM_Init^(0+128)+2)
  3267  0766  308A               	movlw	138
  3268  0767  00ED               	movwf	(??_GSM_Init^(0+128)+1)
  3269  0768  3055               	movlw	85
  3270  0769  00EC               	movwf	??_GSM_Init^(0+128)
  3271  076A                     u2737:	
  3272  076A  0BEC               	decfsz	??_GSM_Init^(0+128),f
  3273  076B  2F6A               	goto	u2737
  3274  076C  0BED               	decfsz	(??_GSM_Init^(0+128)+1),f
  3275  076D  2F6A               	goto	u2737
  3276  076E  0BEE               	decfsz	(??_GSM_Init^(0+128)+2),f
  3277  076F  2F6A               	goto	u2737
  3278                           
  3279                           ;lib.h: 83: UART_Send(mode_text);
  3280  0770  30E0               	movlw	(low (_mode_text| 0))& (0+255)
  3281  0771  1283               	bcf	3,5	;RP0=0, select bank0
  3282  0772  1303               	bcf	3,6	;RP1=0, select bank0
  3283  0773  00E1               	movwf	UART_Send@s
  3284  0774  3000               	movlw	0
  3285  0775  00E2               	movwf	UART_Send@s+1
  3286  0776  120A  158A  27AF  120A  118A  	fcall	_UART_Send
  3287                           
  3288                           ;lib.h: 84: UART_Write(0X0D);
  3289  077B  300D               	movlw	13
  3290  077C  120A  158A  2512  120A  118A  	fcall	_UART_Write
  3291                           
  3292                           ;lib.h: 85: _delay((unsigned long)((100)*(20000000/4000.0)));
  3293  0781  3003               	movlw	3
  3294  0782  1683               	bsf	3,5	;RP0=1, select bank1
  3295  0783  1303               	bcf	3,6	;RP1=0, select bank1
  3296  0784  00EE               	movwf	(??_GSM_Init^(0+128)+2)
  3297  0785  308A               	movlw	138
  3298  0786  00ED               	movwf	(??_GSM_Init^(0+128)+1)
  3299  0787  3055               	movlw	85
  3300  0788  00EC               	movwf	??_GSM_Init^(0+128)
  3301  0789                     u2747:	
  3302  0789  0BEC               	decfsz	??_GSM_Init^(0+128),f
  3303  078A  2F89               	goto	u2747
  3304  078B  0BED               	decfsz	(??_GSM_Init^(0+128)+1),f
  3305  078C  2F89               	goto	u2747
  3306  078D  0BEE               	decfsz	(??_GSM_Init^(0+128)+2),f
  3307  078E  2F89               	goto	u2747
  3308  078F  0008               	return
  3309  0790                     __end_of_GSM_Init:	
  3310                           
  3311                           	psect	text12
  3312  0FAF                     __ptext12:	
  3313 ;; *************** function _UART_Send *****************
  3314 ;; Defined at:
  3315 ;;		line 50 in file "lib.h"
  3316 ;; Parameters:    Size  Location     Type
  3317 ;;  s               2   13[BANK0 ] PTR unsigned char 
  3318 ;;		 -> STR_17(11), c1(5), STR_16(11), b(5), 
  3319 ;;		 -> STR_15(11), a1(5), STR_13(57), STR_12(11), 
  3320 ;;		 -> STR_2(2), STR_1(10), mode_text(10), noecho(5), 
  3321 ;;		 -> AT(3), 
  3322 ;; Auto vars:     Size  Location     Type
  3323 ;;  i               2    0[BANK1 ] int 
  3324 ;; Return value:  Size  Location     Type
  3325 ;;                  1    wreg      void 
  3326 ;; Registers used:
  3327 ;;		wreg, fsr0l, fsr0h, status,2, status,0, btemp+1, pclath, cstack
  3328 ;; Tracked objects:
  3329 ;;		On entry : 0/0
  3330 ;;		On exit  : 0/0
  3331 ;;		Unchanged: 0/0
  3332 ;; Data sizes:     COMMON   BANK0   BANK1   BANK3   BANK2
  3333 ;;      Params:         0       2       0       0       0
  3334 ;;      Locals:         0       0       2       0       0
  3335 ;;      Temps:          0       3       0       0       0
  3336 ;;      Totals:         0       5       2       0       0
  3337 ;;Total ram usage:        7 bytes
  3338 ;; Hardware stack levels used:    1
  3339 ;; Hardware stack levels required when called:    5
  3340 ;; This function calls:
  3341 ;;		_UART_Write
  3342 ;; This function is called by:
  3343 ;;		_GSM_Init
  3344 ;; This function uses a non-reentrant model
  3345 ;;
  3346                           
  3347                           
  3348                           ;psect for function _UART_Send
  3349  0FAF                     _UART_Send:	
  3350                           
  3351                           ;lib.h: 52: int i;
  3352                           ;lib.h: 53: for(i=0;s[i]!='\0';i++)
  3353                           
  3354                           ;incstack = 0
  3355                           ; Regs used in _UART_Send: [wreg-fsr0h+status,2+status,0+btemp+1+pclath+cstack]
  3356  0FAF  1683               	bsf	3,5	;RP0=1, select bank1
  3357  0FB0  1303               	bcf	3,6	;RP1=0, select bank1
  3358  0FB1  01EA               	clrf	UART_Send@i^(0+128)
  3359  0FB2  01EB               	clrf	(UART_Send@i+1)^(0+128)
  3360  0FB3                     l2476:	
  3361  0FB3  086A               	movf	UART_Send@i^(0+128),w
  3362  0FB4  1283               	bcf	3,5	;RP0=0, select bank0
  3363  0FB5  1303               	bcf	3,6	;RP1=0, select bank0
  3364  0FB6  0761               	addwf	UART_Send@s,w
  3365  0FB7  00E4               	movwf	??_UART_Send+1
  3366  0FB8  0862               	movf	UART_Send@s+1,w
  3367  0FB9  00E3               	movwf	??_UART_Send
  3368  0FBA  1803               	skipnc
  3369  0FBB  0AE3               	incf	??_UART_Send,f
  3370  0FBC  1683               	bsf	3,5	;RP0=1, select bank1
  3371  0FBD  1303               	bcf	3,6	;RP1=0, select bank1
  3372  0FBE  1FEA               	btfss	UART_Send@i^(0+128),7
  3373  0FBF  2FC3               	goto	u2080
  3374  0FC0  1283               	bcf	3,5	;RP0=0, select bank0
  3375  0FC1  1303               	bcf	3,6	;RP1=0, select bank0
  3376  0FC2  03E3               	decf	??_UART_Send,f
  3377  0FC3                     u2080:	
  3378  0FC3  1283               	bcf	3,5	;RP0=0, select bank0
  3379  0FC4  1303               	bcf	3,6	;RP1=0, select bank0
  3380  0FC5  0863               	movf	??_UART_Send,w
  3381  0FC6  00E5               	movwf	??_UART_Send+2
  3382  0FC7  0865               	movf	??_UART_Send+2,w
  3383  0FC8  00FF               	movwf	127
  3384  0FC9  0864               	movf	??_UART_Send+1,w
  3385  0FCA  0084               	movwf	4
  3386  0FCB  120A  118A  2400  120A  158A  	fcall	stringtab
  3387  0FD0  3A00               	xorlw	0
  3388  0FD1  1903               	btfsc	3,2
  3389  0FD2  0008               	return
  3390                           
  3391                           ;lib.h: 54: UART_Write(s[i]);
  3392  0FD3  1683               	bsf	3,5	;RP0=1, select bank1
  3393  0FD4  1303               	bcf	3,6	;RP1=0, select bank1
  3394  0FD5  086A               	movf	UART_Send@i^(0+128),w
  3395  0FD6  1283               	bcf	3,5	;RP0=0, select bank0
  3396  0FD7  1303               	bcf	3,6	;RP1=0, select bank0
  3397  0FD8  0761               	addwf	UART_Send@s,w
  3398  0FD9  00E4               	movwf	??_UART_Send+1
  3399  0FDA  0862               	movf	UART_Send@s+1,w
  3400  0FDB  00E3               	movwf	??_UART_Send
  3401  0FDC  1803               	skipnc
  3402  0FDD  0AE3               	incf	??_UART_Send,f
  3403  0FDE  1683               	bsf	3,5	;RP0=1, select bank1
  3404  0FDF  1303               	bcf	3,6	;RP1=0, select bank1
  3405  0FE0  1FEA               	btfss	UART_Send@i^(0+128),7
  3406  0FE1  2FE5               	goto	u2070
  3407  0FE2  1283               	bcf	3,5	;RP0=0, select bank0
  3408  0FE3  1303               	bcf	3,6	;RP1=0, select bank0
  3409  0FE4  03E3               	decf	??_UART_Send,f
  3410  0FE5                     u2070:	
  3411  0FE5  1283               	bcf	3,5	;RP0=0, select bank0
  3412  0FE6  1303               	bcf	3,6	;RP1=0, select bank0
  3413  0FE7  0863               	movf	??_UART_Send,w
  3414  0FE8  00E5               	movwf	??_UART_Send+2
  3415  0FE9  0865               	movf	??_UART_Send+2,w
  3416  0FEA  00FF               	movwf	127
  3417  0FEB  0864               	movf	??_UART_Send+1,w
  3418  0FEC  0084               	movwf	4
  3419  0FED  120A  118A  2400  120A  158A  	fcall	stringtab
  3420  0FF2  120A  158A  2512  120A  158A  	fcall	_UART_Write
  3421  0FF7  3001               	movlw	1
  3422  0FF8  1683               	bsf	3,5	;RP0=1, select bank1
  3423  0FF9  1303               	bcf	3,6	;RP1=0, select bank1
  3424  0FFA  07EA               	addwf	UART_Send@i^(0+128),f
  3425  0FFB  1803               	skipnc
  3426  0FFC  0AEB               	incf	(UART_Send@i+1)^(0+128),f
  3427  0FFD  3000               	movlw	0
  3428  0FFE  07EB               	addwf	(UART_Send@i+1)^(0+128),f
  3429  0FFF  2FB3               	goto	l2476
  3430  1000                     __end_of_UART_Send:	
  3431                           
  3432                           	psect	text13
  3433  0D12                     __ptext13:	
  3434 ;; *************** function _UART_Write *****************
  3435 ;; Defined at:
  3436 ;;		line 42 in file "lib.h"
  3437 ;; Parameters:    Size  Location     Type
  3438 ;;  data            1    wreg     unsigned char 
  3439 ;; Auto vars:     Size  Location     Type
  3440 ;;  data            1   12[BANK0 ] unsigned char 
  3441 ;; Return value:  Size  Location     Type
  3442 ;;                  1    wreg      void 
  3443 ;; Registers used:
  3444 ;;		wreg
  3445 ;; Tracked objects:
  3446 ;;		On entry : 0/0
  3447 ;;		On exit  : 0/0
  3448 ;;		Unchanged: 0/0
  3449 ;; Data sizes:     COMMON   BANK0   BANK1   BANK3   BANK2
  3450 ;;      Params:         0       0       0       0       0
  3451 ;;      Locals:         0       1       0       0       0
  3452 ;;      Temps:          0       2       0       0       0
  3453 ;;      Totals:         0       3       0       0       0
  3454 ;;Total ram usage:        3 bytes
  3455 ;; Hardware stack levels used:    1
  3456 ;; Hardware stack levels required when called:    4
  3457 ;; This function calls:
  3458 ;;		Nothing
  3459 ;; This function is called by:
  3460 ;;		_UART_Send
  3461 ;;		_GSM_Init
  3462 ;; This function uses a non-reentrant model
  3463 ;;
  3464                           
  3465                           
  3466                           ;psect for function _UART_Write
  3467  0D12                     _UART_Write:	
  3468                           
  3469                           ;incstack = 0
  3470                           ; Regs used in _UART_Write: [wreg]
  3471                           ;UART_Write@data stored from wreg
  3472  0D12  1283               	bcf	3,5	;RP0=0, select bank0
  3473  0D13  1303               	bcf	3,6	;RP1=0, select bank0
  3474  0D14  00E0               	movwf	UART_Write@data
  3475  0D15                     l170:	
  3476                           ;lib.h: 44: while(!TRMT);
  3477                           
  3478  0D15  1683               	bsf	3,5	;RP0=1, select bank1
  3479  0D16  1303               	bcf	3,6	;RP1=0, select bank1
  3480  0D17  1C98               	btfss	24,1	;volatile
  3481  0D18  2D15               	goto	l170
  3482                           
  3483                           ;lib.h: 45: TXREG = data;
  3484  0D19  1283               	bcf	3,5	;RP0=0, select bank0
  3485  0D1A  1303               	bcf	3,6	;RP1=0, select bank0
  3486  0D1B  0860               	movf	UART_Write@data,w
  3487  0D1C  0099               	movwf	25	;volatile
  3488                           
  3489                           ;lib.h: 46: _delay((unsigned long)((0.5)*(20000000/4000.0)));
  3490  0D1D  3004               	movlw	4
  3491  0D1E  1283               	bcf	3,5	;RP0=0, select bank0
  3492  0D1F  1303               	bcf	3,6	;RP1=0, select bank0
  3493  0D20  00DF               	movwf	??_UART_Write+1
  3494  0D21  303D               	movlw	61
  3495  0D22  00DE               	movwf	??_UART_Write
  3496  0D23                     u2757:	
  3497  0D23  0BDE               	decfsz	??_UART_Write,f
  3498  0D24  2D23               	goto	u2757
  3499  0D25  0BDF               	decfsz	??_UART_Write+1,f
  3500  0D26  2D23               	goto	u2757
  3501  0D27  0008               	return
  3502  0D28                     __end_of_UART_Write:	
  3503                           
  3504                           	psect	text14
  3505  0DC4                     __ptext14:	
  3506 ;; *************** function _UART_Init *****************
  3507 ;; Defined at:
  3508 ;;		line 27 in file "lib.h"
  3509 ;; Parameters:    Size  Location     Type
  3510 ;;		None
  3511 ;; Auto vars:     Size  Location     Type
  3512 ;;		None
  3513 ;; Return value:  Size  Location     Type
  3514 ;;                  1    wreg      void 
  3515 ;; Registers used:
  3516 ;;		wreg
  3517 ;; Tracked objects:
  3518 ;;		On entry : 0/0
  3519 ;;		On exit  : 0/0
  3520 ;;		Unchanged: 0/0
  3521 ;; Data sizes:     COMMON   BANK0   BANK1   BANK3   BANK2
  3522 ;;      Params:         0       0       0       0       0
  3523 ;;      Locals:         0       0       0       0       0
  3524 ;;      Temps:          0       0       0       0       0
  3525 ;;      Totals:         0       0       0       0       0
  3526 ;;Total ram usage:        0 bytes
  3527 ;; Hardware stack levels used:    1
  3528 ;; Hardware stack levels required when called:    4
  3529 ;; This function calls:
  3530 ;;		Nothing
  3531 ;; This function is called by:
  3532 ;;		_GSM_Init
  3533 ;;		_main
  3534 ;; This function uses a non-reentrant model
  3535 ;;
  3536                           
  3537                           
  3538                           ;psect for function _UART_Init
  3539  0DC4                     _UART_Init:	
  3540                           
  3541                           ;lib.h: 29: TRISC7 = 1;
  3542                           
  3543                           ;incstack = 0
  3544                           ; Regs used in _UART_Init: [wreg]
  3545  0DC4  1683               	bsf	3,5	;RP0=1, select bank1
  3546  0DC5  1303               	bcf	3,6	;RP1=0, select bank1
  3547  0DC6  1787               	bsf	7,7	;volatile
  3548                           
  3549                           ;lib.h: 30: TRISC6 = 0;
  3550  0DC7  1307               	bcf	7,6	;volatile
  3551                           
  3552                           ;lib.h: 31: TXSTA=0X24;
  3553  0DC8  3024               	movlw	36
  3554  0DC9  0098               	movwf	24	;volatile
  3555                           
  3556                           ;lib.h: 32: BRGH=1;
  3557  0DCA  1518               	bsf	24,2	;volatile
  3558                           
  3559                           ;lib.h: 33: RCSTA=0X90;
  3560  0DCB  3090               	movlw	144
  3561  0DCC  1283               	bcf	3,5	;RP0=0, select bank0
  3562  0DCD  1303               	bcf	3,6	;RP1=0, select bank0
  3563  0DCE  0098               	movwf	24	;volatile
  3564                           
  3565                           ;lib.h: 34: TXEN=1;
  3566  0DCF  1683               	bsf	3,5	;RP0=1, select bank1
  3567  0DD0  1303               	bcf	3,6	;RP1=0, select bank1
  3568  0DD1  1698               	bsf	24,5	;volatile
  3569                           
  3570                           ;lib.h: 35: SPEN=1;
  3571  0DD2  1283               	bcf	3,5	;RP0=0, select bank0
  3572  0DD3  1303               	bcf	3,6	;RP1=0, select bank0
  3573  0DD4  1798               	bsf	24,7	;volatile
  3574                           
  3575                           ;lib.h: 36: SYNC = 0;
  3576  0DD5  1683               	bsf	3,5	;RP0=1, select bank1
  3577  0DD6  1303               	bcf	3,6	;RP1=0, select bank1
  3578  0DD7  1218               	bcf	24,4	;volatile
  3579                           
  3580                           ;lib.h: 37: CREN = 1;
  3581  0DD8  1283               	bcf	3,5	;RP0=0, select bank0
  3582  0DD9  1303               	bcf	3,6	;RP1=0, select bank0
  3583  0DDA  1618               	bsf	24,4	;volatile
  3584                           
  3585                           ;lib.h: 38: TXEN = 1;
  3586  0DDB  1683               	bsf	3,5	;RP0=1, select bank1
  3587  0DDC  1303               	bcf	3,6	;RP1=0, select bank1
  3588  0DDD  1698               	bsf	24,5	;volatile
  3589                           
  3590                           ;lib.h: 39: SPBRG=129;
  3591  0DDE  3081               	movlw	129
  3592  0DDF  0099               	movwf	25	;volatile
  3593  0DE0  0008               	return
  3594  0DE1                     __end_of_UART_Init:	
  3595                           
  3596                           	psect	text15
  3597  028D                     __ptext15:	
  3598 ;; *************** function _ISR *****************
  3599 ;; Defined at:
  3600 ;;		line 139 in file "keypad.c"
  3601 ;; Parameters:    Size  Location     Type
  3602 ;;		None
  3603 ;; Auto vars:     Size  Location     Type
  3604 ;;		None
  3605 ;; Return value:  Size  Location     Type
  3606 ;;                  1    wreg      void 
  3607 ;; Registers used:
  3608 ;;		wreg, fsr0l, fsr0h, status,2, status,0, btemp+1, pclath, cstack
  3609 ;; Tracked objects:
  3610 ;;		On entry : 0/0
  3611 ;;		On exit  : 0/0
  3612 ;;		Unchanged: 0/0
  3613 ;; Data sizes:     COMMON   BANK0   BANK1   BANK3   BANK2
  3614 ;;      Params:         0       0       0       0       0
  3615 ;;      Locals:         0       0       0       0       0
  3616 ;;      Temps:          0       7       0       0       0
  3617 ;;      Totals:         0       7       0       0       0
  3618 ;;Total ram usage:        7 bytes
  3619 ;; Hardware stack levels used:    1
  3620 ;; Hardware stack levels required when called:    3
  3621 ;; This function calls:
  3622 ;;		_GSM_Send
  3623 ;;		_UART_Data_Ready
  3624 ;;		_UART_Read
  3625 ;;		_strcpy
  3626 ;;		i1_Lcd_Clear
  3627 ;;		i1_Lcd_Set_Cursor
  3628 ;;		i1_Lcd_Write_String
  3629 ;; This function is called by:
  3630 ;;		Interrupt level 1
  3631 ;; This function uses a non-reentrant model
  3632 ;;
  3633                           
  3634                           
  3635                           ;psect for function _ISR
  3636  028D                     _ISR:	
  3637                           
  3638                           ;keypad.c: 141: if(INTE&&INTF)
  3639  028D  1A0B               	btfsc	11,4	;volatile
  3640  028E  1C8B               	btfss	11,1	;volatile
  3641  028F  2ABD               	goto	i1l404
  3642                           
  3643                           ;keypad.c: 142: {
  3644                           ;keypad.c: 143: INTF=0;
  3645  0290  108B               	bcf	11,1	;volatile
  3646                           
  3647                           ;keypad.c: 144: Lcd_Clear();
  3648  0291  120A  158A  24CE  120A  118A  	fcall	i1_Lcd_Clear
  3649                           
  3650                           ;keypad.c: 145: Lcd_Set_Cursor(1,1);
  3651  0296  01F4               	clrf	i1Lcd_Set_Cursor@b
  3652  0297  0AF4               	incf	i1Lcd_Set_Cursor@b,f
  3653  0298  3001               	movlw	1
  3654  0299  120A  158A  2765  120A  118A  	fcall	i1_Lcd_Set_Cursor
  3655                           
  3656                           ;keypad.c: 146: Lcd_Write_String("Emergency");
  3657  029E  3030               	movlw	(low (((STR_13+47)-__stringbase)| (0+32768)))& (0+255)
  3658  029F  120A  158A  261F  120A  118A  	fcall	i1_Lcd_Write_String
  3659                           
  3660                           ;keypad.c: 147: GSM_Send("9496972130","LOCKER SECURITY UNIT:\n\rCaution:Security alert\n
      +                          \rEmergency");
  3661  02A4  3001               	movlw	(low ((STR_13-__stringbase)| (0+32768)))& (0+255)
  3662  02A5  00FA               	movwf	GSM_Send@m
  3663  02A6  3080               	movlw	128
  3664  02A7  00FB               	movwf	GSM_Send@m+1
  3665  02A8  30A2               	movlw	(low ((STR_12-__stringbase)| (0+32768)))& (0+255)
  3666  02A9  120A  118A  24E3  120A  118A  	fcall	_GSM_Send
  3667                           
  3668                           ;keypad.c: 151: _delay((unsigned long)((2000)*(20000000/4000.0)));
  3669  02AE  3033               	movlw	51
  3670  02AF  1283               	bcf	3,5	;RP0=0, select bank0
  3671  02B0  1303               	bcf	3,6	;RP1=0, select bank0
  3672  02B1  00D9               	movwf	??_ISR+2
  3673  02B2  30BB               	movlw	187
  3674  02B3  00D8               	movwf	??_ISR+1
  3675  02B4  30DF               	movlw	223
  3676  02B5  00D7               	movwf	??_ISR
  3677  02B6                     u276_27:	
  3678  02B6  0BD7               	decfsz	??_ISR,f
  3679  02B7  2AB6               	goto	u276_27
  3680  02B8  0BD8               	decfsz	??_ISR+1,f
  3681  02B9  2AB6               	goto	u276_27
  3682  02BA  0BD9               	decfsz	??_ISR+2,f
  3683  02BB  2AB6               	goto	u276_27
  3684                           
  3685                           ;keypad.c: 152: }
  3686  02BC  2BED               	goto	i1l418
  3687  02BD                     i1l404:	
  3688                           ;keypad.c: 153: else
  3689                           ;keypad.c: 154: {
  3690                           ;keypad.c: 157: {
  3691                           ;keypad.c: 158: while(!RCIF);
  3692                           
  3693  02BD  1283               	bcf	3,5	;RP0=0, select bank0
  3694  02BE  1303               	bcf	3,6	;RP1=0, select bank0
  3695  02BF  1E8C               	btfss	12,5	;volatile
  3696  02C0  2ABD               	goto	i1l404
  3697                           
  3698                           ;keypad.c: 159: a=RCREG;
  3699  02C1  081A               	movf	26,w	;volatile
  3700  02C2  00D7               	movwf	??_ISR
  3701  02C3  0857               	movf	??_ISR,w
  3702  02C4  00FD               	movwf	_a
  3703                           
  3704                           ;keypad.c: 160: {
  3705                           ;keypad.c: 161: if(a=='$')
  3706  02C5  3024               	movlw	36
  3707  02C6  067D               	xorwf	_a,w
  3708  02C7  1D03               	btfss	3,2
  3709  02C8  2BEA               	goto	i1l2414
  3710                           
  3711                           ;keypad.c: 162: {
  3712                           ;keypad.c: 163: for(i=0;i<12;)
  3713  02C9  01C5               	clrf	_i
  3714  02CA  01C6               	clrf	_i+1
  3715  02CB  3000               	movlw	0
  3716  02CC  0246               	subwf	_i+1,w
  3717  02CD  300C               	movlw	12
  3718  02CE  1903               	skipnz
  3719  02CF  0245               	subwf	_i,w
  3720  02D0  1803               	btfsc	3,0
  3721  02D1  2AFB               	goto	i1l409
  3722  02D2                     i1l2356:	
  3723                           
  3724                           ;keypad.c: 164: {
  3725                           ;keypad.c: 165: if(UART_Data_Ready())
  3726  02D2  120A  158A  24C0  120A  118A  	fcall	_UART_Data_Ready
  3727  02D7  3A00               	xorlw	0
  3728  02D8  1903               	skipnz
  3729  02D9  2AF2               	goto	i1l2364
  3730                           
  3731                           ;keypad.c: 166: {
  3732                           ;keypad.c: 167: a = UART_Read();
  3733  02DA  120A  118A  23FA  120A  118A  	fcall	_UART_Read
  3734  02DF  1283               	bcf	3,5	;RP0=0, select bank0
  3735  02E0  1303               	bcf	3,6	;RP1=0, select bank0
  3736  02E1  00D7               	movwf	??_ISR
  3737  02E2  0857               	movf	??_ISR,w
  3738  02E3  00FD               	movwf	_a
  3739                           
  3740                           ;keypad.c: 168: rfid[i]=a;
  3741  02E4  087D               	movf	_a,w
  3742  02E5  00D7               	movwf	??_ISR
  3743  02E6  0845               	movf	_i,w
  3744  02E7  3EA0               	addlw	(low (_rfid| 0))& (0+255)
  3745  02E8  0084               	movwf	4
  3746  02E9  0857               	movf	??_ISR,w
  3747  02EA  1383               	bcf	3,7	;select IRP bank1
  3748  02EB  0080               	movwf	0
  3749                           
  3750                           ;keypad.c: 169: i++;
  3751  02EC  3001               	movlw	1
  3752  02ED  07C5               	addwf	_i,f
  3753  02EE  1803               	skipnc
  3754  02EF  0AC6               	incf	_i+1,f
  3755  02F0  3000               	movlw	0
  3756  02F1  07C6               	addwf	_i+1,f
  3757  02F2                     i1l2364:	
  3758  02F2  3000               	movlw	0
  3759  02F3  1283               	bcf	3,5	;RP0=0, select bank0
  3760  02F4  1303               	bcf	3,6	;RP1=0, select bank0
  3761  02F5  0246               	subwf	_i+1,w
  3762  02F6  300C               	movlw	12
  3763  02F7  1903               	skipnz
  3764  02F8  0245               	subwf	_i,w
  3765  02F9  1C03               	skipc
  3766  02FA  2AD2               	goto	i1l2356
  3767  02FB                     i1l409:	
  3768                           
  3769                           ;keypad.c: 170: }
  3770                           ;keypad.c: 171: }
  3771                           ;keypad.c: 173: RCIF=0;
  3772  02FB  128C               	bcf	12,5	;volatile
  3773                           
  3774                           ;keypad.c: 175: {
  3775                           ;keypad.c: 177: if(rf1[8]==rfid[8]&&rf1[9]==rfid[9])
  3776  02FC  1683               	bsf	3,5	;RP0=1, select bank1
  3777  02FD  1303               	bcf	3,6	;RP1=0, select bank1
  3778  02FE  085D               	movf	(_rf1^(0+128)+8),w
  3779  02FF  0628               	xorwf	(_rfid^(0+128)+8),w
  3780  0300  1D03               	skipz
  3781  0301  2BC9               	goto	i1l2408
  3782  0302  085E               	movf	(_rf1^(0+128)+9),w
  3783  0303  0629               	xorwf	(_rfid^(0+128)+9),w
  3784  0304  1D03               	skipz
  3785  0305  2BC9               	goto	i1l2408
  3786                           
  3787                           ;keypad.c: 179: {
  3788                           ;keypad.c: 180: Lcd_Clear();
  3789  0306  120A  158A  24CE  120A  118A  	fcall	i1_Lcd_Clear
  3790                           
  3791                           ;keypad.c: 182: Lcd_Set_Cursor(1,1);
  3792  030B  01F4               	clrf	i1Lcd_Set_Cursor@b
  3793  030C  0AF4               	incf	i1Lcd_Set_Cursor@b,f
  3794  030D  3001               	movlw	1
  3795  030E  120A  158A  2765  120A  118A  	fcall	i1_Lcd_Set_Cursor
  3796                           
  3797                           ;keypad.c: 183: Lcd_Write_String("OTP Sending...");
  3798  0313  304B               	movlw	(low ((STR_14-__stringbase)| (0+32768)))& (0+255)
  3799  0314  120A  158A  261F  120A  118A  	fcall	i1_Lcd_Write_String
  3800                           
  3801                           ;keypad.c: 185: _delay((unsigned long)((2000)*(20000000/4000.0)));
  3802  0319  3033               	movlw	51
  3803  031A  1283               	bcf	3,5	;RP0=0, select bank0
  3804  031B  1303               	bcf	3,6	;RP1=0, select bank0
  3805  031C  00D9               	movwf	??_ISR+2
  3806  031D  30BB               	movlw	187
  3807  031E  00D8               	movwf	??_ISR+1
  3808  031F  30DF               	movlw	223
  3809  0320  00D7               	movwf	??_ISR
  3810  0321                     u277_27:	
  3811  0321  0BD7               	decfsz	??_ISR,f
  3812  0322  2B21               	goto	u277_27
  3813  0323  0BD8               	decfsz	??_ISR+1,f
  3814  0324  2B21               	goto	u277_27
  3815  0325  0BD9               	decfsz	??_ISR+2,f
  3816  0326  2B21               	goto	u277_27
  3817                           
  3818                           ;keypad.c: 187: if(k==0)
  3819  0327  1283               	bcf	3,5	;RP0=0, select bank0
  3820  0328  1303               	bcf	3,6	;RP1=0, select bank0
  3821  0329  0849               	movf	_k,w
  3822  032A  044A               	iorwf	_k+1,w
  3823  032B  1D03               	btfss	3,2
  3824  032C  2B5E               	goto	i1l2386
  3825                           
  3826                           ;keypad.c: 188: {
  3827                           ;keypad.c: 189: k++;
  3828  032D  3001               	movlw	1
  3829  032E  07C9               	addwf	_k,f
  3830  032F  1803               	skipnc
  3831  0330  0ACA               	incf	_k+1,f
  3832  0331  3000               	movlw	0
  3833  0332  07CA               	addwf	_k+1,f
  3834                           
  3835                           ;keypad.c: 190: j++;
  3836  0333  3001               	movlw	1
  3837  0334  07C7               	addwf	_j,f
  3838  0335  1803               	skipnc
  3839  0336  0AC8               	incf	_j+1,f
  3840  0337  3000               	movlw	0
  3841  0338  07C8               	addwf	_j+1,f
  3842                           
  3843                           ;keypad.c: 191: GSM_Send("9496972130",a1);
  3844  0339  3034               	movlw	(low (_a1| 0))& (0+255)
  3845  033A  00FA               	movwf	GSM_Send@m
  3846  033B  3000               	movlw	0
  3847  033C  00FB               	movwf	GSM_Send@m+1
  3848  033D  30A2               	movlw	(low ((STR_12-__stringbase)| (0+32768)))& (0+255)
  3849  033E  120A  118A  24E3  120A  118A  	fcall	_GSM_Send
  3850                           
  3851                           ;keypad.c: 192: strcpy(temp,a1);
  3852  0343  3034               	movlw	(low (_a1| 0))& (0+255)
  3853  0344  1283               	bcf	3,5	;RP0=0, select bank0
  3854  0345  1303               	bcf	3,6	;RP1=0, select bank0
  3855  0346  00D7               	movwf	??_ISR
  3856  0347  0857               	movf	??_ISR,w
  3857  0348  00F0               	movwf	strcpy@from
  3858  0349  30CB               	movlw	(low (_temp| 0))& (0+255)
  3859  034A  120A  158A  2558  120A  118A  	fcall	_strcpy
  3860                           
  3861                           ;keypad.c: 193: _delay((unsigned long)((200)*(20000000/4000.0)));
  3862  034F  3006               	movlw	6
  3863  0350  1283               	bcf	3,5	;RP0=0, select bank0
  3864  0351  1303               	bcf	3,6	;RP1=0, select bank0
  3865  0352  00D9               	movwf	??_ISR+2
  3866  0353  3013               	movlw	19
  3867  0354  00D8               	movwf	??_ISR+1
  3868  0355  30AD               	movlw	173
  3869  0356  00D7               	movwf	??_ISR
  3870  0357                     u278_27:	
  3871  0357  0BD7               	decfsz	??_ISR,f
  3872  0358  2B57               	goto	u278_27
  3873  0359  0BD8               	decfsz	??_ISR+1,f
  3874  035A  2B57               	goto	u278_27
  3875  035B  0BD9               	decfsz	??_ISR+2,f
  3876  035C  2B57               	goto	u278_27
  3877                           
  3878                           ;keypad.c: 194: }
  3879  035D  2BEA               	goto	i1l2414
  3880  035E                     i1l2386:	
  3881                           
  3882                           ;keypad.c: 195: else if(k==1)
  3883  035E  1283               	bcf	3,5	;RP0=0, select bank0
  3884  035F  1303               	bcf	3,6	;RP1=0, select bank0
  3885  0360  0349               	decf	_k,w
  3886  0361  044A               	iorwf	_k+1,w
  3887  0362  1D03               	btfss	3,2
  3888  0363  2B95               	goto	i1l2396
  3889                           
  3890                           ;keypad.c: 196: {
  3891                           ;keypad.c: 197: j++;
  3892  0364  3001               	movlw	1
  3893  0365  07C7               	addwf	_j,f
  3894  0366  1803               	skipnc
  3895  0367  0AC8               	incf	_j+1,f
  3896  0368  3000               	movlw	0
  3897  0369  07C8               	addwf	_j+1,f
  3898                           
  3899                           ;keypad.c: 198: k++;
  3900  036A  3001               	movlw	1
  3901  036B  07C9               	addwf	_k,f
  3902  036C  1803               	skipnc
  3903  036D  0ACA               	incf	_k+1,f
  3904  036E  3000               	movlw	0
  3905  036F  07CA               	addwf	_k+1,f
  3906                           
  3907                           ;keypad.c: 199: GSM_Send("9496972130",b);
  3908  0370  302F               	movlw	(low (_b| 0))& (0+255)
  3909  0371  00FA               	movwf	GSM_Send@m
  3910  0372  3000               	movlw	0
  3911  0373  00FB               	movwf	GSM_Send@m+1
  3912  0374  30A2               	movlw	(low ((STR_12-__stringbase)| (0+32768)))& (0+255)
  3913  0375  120A  118A  24E3  120A  118A  	fcall	_GSM_Send
  3914                           
  3915                           ;keypad.c: 200: strcpy(temp,b);
  3916  037A  302F               	movlw	(low (_b| 0))& (0+255)
  3917  037B  1283               	bcf	3,5	;RP0=0, select bank0
  3918  037C  1303               	bcf	3,6	;RP1=0, select bank0
  3919  037D  00D7               	movwf	??_ISR
  3920  037E  0857               	movf	??_ISR,w
  3921  037F  00F0               	movwf	strcpy@from
  3922  0380  30CB               	movlw	(low (_temp| 0))& (0+255)
  3923  0381  120A  158A  2558  120A  118A  	fcall	_strcpy
  3924                           
  3925                           ;keypad.c: 201: _delay((unsigned long)((200)*(20000000/4000.0)));
  3926  0386  3006               	movlw	6
  3927  0387  1283               	bcf	3,5	;RP0=0, select bank0
  3928  0388  1303               	bcf	3,6	;RP1=0, select bank0
  3929  0389  00D9               	movwf	??_ISR+2
  3930  038A  3013               	movlw	19
  3931  038B  00D8               	movwf	??_ISR+1
  3932  038C  30AD               	movlw	173
  3933  038D  00D7               	movwf	??_ISR
  3934  038E                     u279_27:	
  3935  038E  0BD7               	decfsz	??_ISR,f
  3936  038F  2B8E               	goto	u279_27
  3937  0390  0BD8               	decfsz	??_ISR+1,f
  3938  0391  2B8E               	goto	u279_27
  3939  0392  0BD9               	decfsz	??_ISR+2,f
  3940  0393  2B8E               	goto	u279_27
  3941                           
  3942                           ;keypad.c: 202: }
  3943  0394  2BEA               	goto	i1l2414
  3944  0395                     i1l2396:	
  3945                           
  3946                           ;keypad.c: 203: else if(k==2)
  3947  0395  3002               	movlw	2
  3948  0396  1283               	bcf	3,5	;RP0=0, select bank0
  3949  0397  1303               	bcf	3,6	;RP1=0, select bank0
  3950  0398  0649               	xorwf	_k,w
  3951  0399  044A               	iorwf	_k+1,w
  3952  039A  1D03               	btfss	3,2
  3953  039B  2BEA               	goto	i1l2414
  3954                           
  3955                           ;keypad.c: 204: {
  3956                           ;keypad.c: 205: j++;
  3957  039C  3001               	movlw	1
  3958  039D  07C7               	addwf	_j,f
  3959  039E  1803               	skipnc
  3960  039F  0AC8               	incf	_j+1,f
  3961  03A0  3000               	movlw	0
  3962  03A1  07C8               	addwf	_j+1,f
  3963                           
  3964                           ;keypad.c: 206: k=0;
  3965  03A2  01C9               	clrf	_k
  3966  03A3  01CA               	clrf	_k+1
  3967                           
  3968                           ;keypad.c: 207: GSM_Send("9496972130",c1);
  3969  03A4  302A               	movlw	(low (_c1| 0))& (0+255)
  3970  03A5  00FA               	movwf	GSM_Send@m
  3971  03A6  3000               	movlw	0
  3972  03A7  00FB               	movwf	GSM_Send@m+1
  3973  03A8  30A2               	movlw	(low ((STR_12-__stringbase)| (0+32768)))& (0+255)
  3974  03A9  120A  118A  24E3  120A  118A  	fcall	_GSM_Send
  3975                           
  3976                           ;keypad.c: 208: strcpy(temp,c1);
  3977  03AE  302A               	movlw	(low (_c1| 0))& (0+255)
  3978  03AF  1283               	bcf	3,5	;RP0=0, select bank0
  3979  03B0  1303               	bcf	3,6	;RP1=0, select bank0
  3980  03B1  00D7               	movwf	??_ISR
  3981  03B2  0857               	movf	??_ISR,w
  3982  03B3  00F0               	movwf	strcpy@from
  3983  03B4  30CB               	movlw	(low (_temp| 0))& (0+255)
  3984  03B5  120A  158A  2558  120A  118A  	fcall	_strcpy
  3985                           
  3986                           ;keypad.c: 209: _delay((unsigned long)((200)*(20000000/4000.0)));
  3987  03BA  3006               	movlw	6
  3988  03BB  1283               	bcf	3,5	;RP0=0, select bank0
  3989  03BC  1303               	bcf	3,6	;RP1=0, select bank0
  3990  03BD  00D9               	movwf	??_ISR+2
  3991  03BE  3013               	movlw	19
  3992  03BF  00D8               	movwf	??_ISR+1
  3993  03C0  30AD               	movlw	173
  3994  03C1  00D7               	movwf	??_ISR
  3995  03C2                     u280_27:	
  3996  03C2  0BD7               	decfsz	??_ISR,f
  3997  03C3  2BC2               	goto	u280_27
  3998  03C4  0BD8               	decfsz	??_ISR+1,f
  3999  03C5  2BC2               	goto	u280_27
  4000  03C6  0BD9               	decfsz	??_ISR+2,f
  4001  03C7  2BC2               	goto	u280_27
  4002                           
  4003                           ;keypad.c: 210: }
  4004                           ;keypad.c: 215: }
  4005  03C8  2BEA               	goto	i1l2414
  4006  03C9                     i1l2408:	
  4007                           
  4008                           ;keypad.c: 216: else
  4009                           ;keypad.c: 217: {
  4010                           ;keypad.c: 218: Lcd_Clear();
  4011  03C9  120A  158A  24CE  120A  118A  	fcall	i1_Lcd_Clear
  4012                           
  4013                           ;keypad.c: 219: Lcd_Set_Cursor(1,1);
  4014  03CE  01F4               	clrf	i1Lcd_Set_Cursor@b
  4015  03CF  0AF4               	incf	i1Lcd_Set_Cursor@b,f
  4016  03D0  3001               	movlw	1
  4017  03D1  120A  158A  2765  120A  118A  	fcall	i1_Lcd_Set_Cursor
  4018                           
  4019                           ;keypad.c: 220: Lcd_Write_String("Wrong user");
  4020  03D6  30AD               	movlw	(low ((STR_18-__stringbase)| (0+32768)))& (0+255)
  4021  03D7  120A  158A  261F  120A  118A  	fcall	i1_Lcd_Write_String
  4022                           
  4023                           ;keypad.c: 222: _delay((unsigned long)((2000)*(20000000/4000.0)));
  4024  03DC  3033               	movlw	51
  4025  03DD  1283               	bcf	3,5	;RP0=0, select bank0
  4026  03DE  1303               	bcf	3,6	;RP1=0, select bank0
  4027  03DF  00D9               	movwf	??_ISR+2
  4028  03E0  30BB               	movlw	187
  4029  03E1  00D8               	movwf	??_ISR+1
  4030  03E2  30DF               	movlw	223
  4031  03E3  00D7               	movwf	??_ISR
  4032  03E4                     u281_27:	
  4033  03E4  0BD7               	decfsz	??_ISR,f
  4034  03E5  2BE4               	goto	u281_27
  4035  03E6  0BD8               	decfsz	??_ISR+1,f
  4036  03E7  2BE4               	goto	u281_27
  4037  03E8  0BD9               	decfsz	??_ISR+2,f
  4038  03E9  2BE4               	goto	u281_27
  4039  03EA                     i1l2414:	
  4040                           
  4041                           ;keypad.c: 223: }
  4042                           ;keypad.c: 226: }
  4043                           ;keypad.c: 227: }
  4044                           ;keypad.c: 228: RCIF=0;
  4045  03EA  1283               	bcf	3,5	;RP0=0, select bank0
  4046  03EB  1303               	bcf	3,6	;RP1=0, select bank0
  4047  03EC  128C               	bcf	12,5	;volatile
  4048  03ED                     i1l418:	
  4049  03ED  1283               	bcf	3,5	;RP0=0, select bank0
  4050  03EE  1303               	bcf	3,6	;RP1=0, select bank0
  4051  03EF  085D               	movf	??_ISR+6,w
  4052  03F0  00FF               	movwf	127
  4053  03F1  085C               	movf	??_ISR+5,w
  4054  03F2  008A               	movwf	10
  4055  03F3  085B               	movf	??_ISR+4,w
  4056  03F4  0084               	movwf	4
  4057  03F5  0E5A               	swapf	(??_ISR+3)^0,w
  4058  03F6  0083               	movwf	3
  4059  03F7  0EFE               	swapf	126,f
  4060  03F8  0E7E               	swapf	126,w
  4061  03F9  0009               	retfie
  4062  03FA                     __end_of_ISR:	
  4063                           
  4064                           	psect	intentry
  4065  0004                     __pintentry:	
  4066                           ;incstack = 0
  4067                           ; Regs used in _ISR: [wreg-fsr0h+status,2+status,0+btemp+1+pclath+cstack]
  4068                           
  4069  0004                     interrupt_function:	
  4070  007E                     saved_w	set	btemp
  4071  0004  00FE               	movwf	btemp
  4072  0005  0E03               	swapf	3,w
  4073  0006  1283               	bcf	3,5	;RP0=0, select bank0
  4074  0007  1303               	bcf	3,6	;RP1=0, select bank0
  4075  0008  00DA               	movwf	??_ISR+3
  4076  0009  0804               	movf	4,w
  4077  000A  00DB               	movwf	??_ISR+4
  4078  000B  080A               	movf	10,w
  4079  000C  00DC               	movwf	??_ISR+5
  4080  000D  087F               	movf	btemp+1,w
  4081  000E  00DD               	movwf	??_ISR+6
  4082  000F  120A  118A  2A8D   	ljmp	_ISR
  4083                           
  4084                           	psect	text16
  4085  0E1F                     __ptext16:	
  4086 ;; *************** function i1_Lcd_Write_String *****************
  4087 ;; Defined at:
  4088 ;;		line 233 in file "lib.h"
  4089 ;; Parameters:    Size  Location     Type
  4090 ;;  a               1    wreg     PTR unsigned char 
  4091 ;;		 -> STR_18(11), STR_14(15), STR_11(10), STR_10(9), 
  4092 ;;		 -> STR_9(17), STR_8(12), STR_7(15), STR_6(15), 
  4093 ;;		 -> STR_5(15), STR_4(9), STR_3(15), 
  4094 ;; Auto vars:     Size  Location     Type
  4095 ;;  a               1    5[COMMON] PTR unsigned char 
  4096 ;;		 -> STR_18(11), STR_14(15), STR_11(10), STR_10(9), 
  4097 ;;		 -> STR_9(17), STR_8(12), STR_7(15), STR_6(15), 
  4098 ;;		 -> STR_5(15), STR_4(9), STR_3(15), 
  4099 ;;  Lcd_Write_St    2    6[COMMON] int 
  4100 ;; Return value:  Size  Location     Type
  4101 ;;                  1    wreg      void 
  4102 ;; Registers used:
  4103 ;;		wreg, fsr0l, fsr0h, status,2, status,0, pclath, cstack
  4104 ;; Tracked objects:
  4105 ;;		On entry : 0/0
  4106 ;;		On exit  : 0/0
  4107 ;;		Unchanged: 0/0
  4108 ;; Data sizes:     COMMON   BANK0   BANK1   BANK3   BANK2
  4109 ;;      Params:         0       0       0       0       0
  4110 ;;      Locals:         3       0       0       0       0
  4111 ;;      Temps:          0       0       0       0       0
  4112 ;;      Totals:         3       0       0       0       0
  4113 ;;Total ram usage:        3 bytes
  4114 ;; Hardware stack levels used:    1
  4115 ;; Hardware stack levels required when called:    2
  4116 ;; This function calls:
  4117 ;;		i1_Lcd_Write_Char
  4118 ;; This function is called by:
  4119 ;;		_ISR
  4120 ;; This function uses a non-reentrant model
  4121 ;;
  4122                           
  4123                           
  4124                           ;psect for function i1_Lcd_Write_String
  4125  0E1F                     i1_Lcd_Write_String:	
  4126                           
  4127                           ;incstack = 0
  4128                           ; Regs used in i1_Lcd_Write_String: [wreg-fsr0h+status,2+status,0+pclath+cstack]
  4129                           ;i1Lcd_Write_String@a stored from wreg
  4130  0E1F  00F5               	movwf	i1Lcd_Write_String@a
  4131                           
  4132                           ;lib.h: 235: int i;
  4133                           ;lib.h: 236: for(i=0;a[i]!='\0';i++)
  4134  0E20  01F6               	clrf	i1Lcd_Write_String@i
  4135  0E21  01F7               	clrf	i1Lcd_Write_String@i+1
  4136  0E22                     i1l2142:	
  4137  0E22  0876               	movf	i1Lcd_Write_String@i,w
  4138  0E23  0775               	addwf	i1Lcd_Write_String@a,w
  4139  0E24  0084               	movwf	4
  4140  0E25  120A  118A  240A  120A  158A  	fcall	stringdir
  4141  0E2A  3A00               	xorlw	0
  4142  0E2B  1903               	btfsc	3,2
  4143  0E2C  0008               	return
  4144                           
  4145                           ;lib.h: 237: Lcd_Write_Char(a[i]);
  4146  0E2D  0876               	movf	i1Lcd_Write_String@i,w
  4147  0E2E  0775               	addwf	i1Lcd_Write_String@a,w
  4148  0E2F  0084               	movwf	4
  4149  0E30  120A  118A  240A  120A  158A  	fcall	stringdir
  4150  0E35  120A  158A  26B0  120A  158A  	fcall	i1_Lcd_Write_Char
  4151  0E3A  3001               	movlw	1
  4152  0E3B  07F6               	addwf	i1Lcd_Write_String@i,f
  4153  0E3C  1803               	skipnc
  4154  0E3D  0AF7               	incf	i1Lcd_Write_String@i+1,f
  4155  0E3E  3000               	movlw	0
  4156  0E3F  07F7               	addwf	i1Lcd_Write_String@i+1,f
  4157  0E40  2E22               	goto	i1l2142
  4158  0E41                     __end_ofi1_Lcd_Write_String:	
  4159                           
  4160                           	psect	text17
  4161  0EB0                     __ptext17:	
  4162 ;; *************** function i1_Lcd_Write_Char *****************
  4163 ;; Defined at:
  4164 ;;		line 216 in file "lib.h"
  4165 ;; Parameters:    Size  Location     Type
  4166 ;;  a               1    wreg     unsigned char 
  4167 ;; Auto vars:     Size  Location     Type
  4168 ;;  a               1    4[COMMON] unsigned char 
  4169 ;;  Lcd_Write_Ch    1    3[COMMON] unsigned char 
  4170 ;;  Lcd_Write_Ch    1    2[COMMON] unsigned char 
  4171 ;; Return value:  Size  Location     Type
  4172 ;;                  1    wreg      void 
  4173 ;; Registers used:
  4174 ;;		wreg, status,2, status,0, pclath, cstack
  4175 ;; Tracked objects:
  4176 ;;		On entry : 0/0
  4177 ;;		On exit  : 0/0
  4178 ;;		Unchanged: 0/0
  4179 ;; Data sizes:     COMMON   BANK0   BANK1   BANK3   BANK2
  4180 ;;      Params:         0       0       0       0       0
  4181 ;;      Locals:         3       0       0       0       0
  4182 ;;      Temps:          1       0       0       0       0
  4183 ;;      Totals:         4       0       0       0       0
  4184 ;;Total ram usage:        4 bytes
  4185 ;; Hardware stack levels used:    1
  4186 ;; Hardware stack levels required when called:    1
  4187 ;; This function calls:
  4188 ;;		i1_Lcd_Port
  4189 ;; This function is called by:
  4190 ;;		i1_Lcd_Write_String
  4191 ;; This function uses a non-reentrant model
  4192 ;;
  4193                           
  4194                           
  4195                           ;psect for function i1_Lcd_Write_Char
  4196  0EB0                     i1_Lcd_Write_Char:	
  4197                           
  4198                           ;incstack = 0
  4199                           ; Regs used in i1_Lcd_Write_Char: [wreg+status,2+status,0+pclath+cstack]
  4200                           ;i1Lcd_Write_Char@a stored from wreg
  4201  0EB0  00F4               	movwf	i1Lcd_Write_Char@a
  4202                           
  4203                           ;lib.h: 218: char temp,y;
  4204                           ;lib.h: 219: temp = a&0x0F;
  4205  0EB1  0874               	movf	i1Lcd_Write_Char@a,w
  4206  0EB2  390F               	andlw	15
  4207  0EB3  00F1               	movwf	??i1_Lcd_Write_Char
  4208  0EB4  0871               	movf	??i1_Lcd_Write_Char,w
  4209  0EB5  00F2               	movwf	i1Lcd_Write_Char@temp
  4210                           
  4211                           ;lib.h: 220: y = a&0xF0;
  4212  0EB6  0874               	movf	i1Lcd_Write_Char@a,w
  4213  0EB7  39F0               	andlw	240
  4214  0EB8  00F1               	movwf	??i1_Lcd_Write_Char
  4215  0EB9  0871               	movf	??i1_Lcd_Write_Char,w
  4216  0EBA  00F3               	movwf	i1Lcd_Write_Char@y
  4217                           
  4218                           ;lib.h: 221: RD1 = 1;
  4219  0EBB  1283               	bcf	3,5	;RP0=0, select bank0
  4220  0EBC  1303               	bcf	3,6	;RP1=0, select bank0
  4221  0EBD  1488               	bsf	8,1	;volatile
  4222                           
  4223                           ;lib.h: 222: RD2=0;
  4224  0EBE  1108               	bcf	8,2	;volatile
  4225                           
  4226                           ;lib.h: 223: Lcd_Port(y>>4);
  4227  0EBF  0873               	movf	i1Lcd_Write_Char@y,w
  4228  0EC0  00F1               	movwf	??i1_Lcd_Write_Char
  4229  0EC1  3004               	movlw	4
  4230  0EC2                     u135_25:	
  4231  0EC2  1003               	clrc
  4232  0EC3  0CF1               	rrf	??i1_Lcd_Write_Char,f
  4233  0EC4  3EFF               	addlw	-1
  4234  0EC5  1D03               	skipz
  4235  0EC6  2EC2               	goto	u135_25
  4236  0EC7  0871               	movf	??i1_Lcd_Write_Char,w
  4237  0EC8  120A  158A  2572  120A  158A  	fcall	i1_Lcd_Port
  4238                           
  4239                           ;lib.h: 224: RD0 = 1;
  4240  0ECD  1283               	bcf	3,5	;RP0=0, select bank0
  4241  0ECE  1303               	bcf	3,6	;RP1=0, select bank0
  4242  0ECF  1408               	bsf	8,0	;volatile
  4243                           
  4244                           ;lib.h: 225: _delay((unsigned long)((40)*(20000000/4000000.0)));
  4245  0ED0  3042               	movlw	66
  4246  0ED1  00F1               	movwf	??i1_Lcd_Write_Char
  4247  0ED2                     u282_27:	
  4248  0ED2  0BF1               	decfsz	??i1_Lcd_Write_Char,f
  4249  0ED3  2ED2               	goto	u282_27
  4250  0ED4  0000               	nop
  4251                           
  4252                           ;lib.h: 226: RD0 = 0;
  4253  0ED5  1283               	bcf	3,5	;RP0=0, select bank0
  4254  0ED6  1303               	bcf	3,6	;RP1=0, select bank0
  4255  0ED7  1008               	bcf	8,0	;volatile
  4256                           
  4257                           ;lib.h: 227: Lcd_Port(temp);
  4258  0ED8  0872               	movf	i1Lcd_Write_Char@temp,w
  4259  0ED9  120A  158A  2572  120A  158A  	fcall	i1_Lcd_Port
  4260                           
  4261                           ;lib.h: 228: RD0 = 1;
  4262  0EDE  1283               	bcf	3,5	;RP0=0, select bank0
  4263  0EDF  1303               	bcf	3,6	;RP1=0, select bank0
  4264  0EE0  1408               	bsf	8,0	;volatile
  4265                           
  4266                           ;lib.h: 229: _delay((unsigned long)((40)*(20000000/4000000.0)));
  4267  0EE1  3042               	movlw	66
  4268  0EE2  00F1               	movwf	??i1_Lcd_Write_Char
  4269  0EE3                     u283_27:	
  4270  0EE3  0BF1               	decfsz	??i1_Lcd_Write_Char,f
  4271  0EE4  2EE3               	goto	u283_27
  4272  0EE5  0000               	nop
  4273                           
  4274                           ;lib.h: 230: RD0 = 0;
  4275  0EE6  1283               	bcf	3,5	;RP0=0, select bank0
  4276  0EE7  1303               	bcf	3,6	;RP1=0, select bank0
  4277  0EE8  1008               	bcf	8,0	;volatile
  4278  0EE9  0008               	return
  4279  0EEA                     __end_ofi1_Lcd_Write_Char:	
  4280                           
  4281                           	psect	text18
  4282  0F65                     __ptext18:	
  4283 ;; *************** function i1_Lcd_Set_Cursor *****************
  4284 ;; Defined at:
  4285 ;;		line 176 in file "lib.h"
  4286 ;; Parameters:    Size  Location     Type
  4287 ;;  a               1    wreg     unsigned char 
  4288 ;;  b               1    4[COMMON] unsigned char 
  4289 ;; Auto vars:     Size  Location     Type
  4290 ;;  a               1    7[COMMON] unsigned char 
  4291 ;;  Lcd_Set_Curs    1   10[COMMON] unsigned char 
  4292 ;;  Lcd_Set_Curs    1    9[COMMON] unsigned char 
  4293 ;;  Lcd_Set_Curs    1    8[COMMON] unsigned char 
  4294 ;; Return value:  Size  Location     Type
  4295 ;;                  1    wreg      void 
  4296 ;; Registers used:
  4297 ;;		wreg, status,2, status,0, pclath, cstack
  4298 ;; Tracked objects:
  4299 ;;		On entry : 0/0
  4300 ;;		On exit  : 0/0
  4301 ;;		Unchanged: 0/0
  4302 ;; Data sizes:     COMMON   BANK0   BANK1   BANK3   BANK2
  4303 ;;      Params:         1       0       0       0       0
  4304 ;;      Locals:         4       0       0       0       0
  4305 ;;      Temps:          2       0       0       0       0
  4306 ;;      Totals:         7       0       0       0       0
  4307 ;;Total ram usage:        7 bytes
  4308 ;; Hardware stack levels used:    1
  4309 ;; Hardware stack levels required when called:    2
  4310 ;; This function calls:
  4311 ;;		i1_Lcd_Cmd
  4312 ;; This function is called by:
  4313 ;;		_ISR
  4314 ;; This function uses a non-reentrant model
  4315 ;;
  4316                           
  4317                           
  4318                           ;psect for function i1_Lcd_Set_Cursor
  4319  0F65                     i1_Lcd_Set_Cursor:	
  4320                           
  4321                           ;incstack = 0
  4322                           ; Regs used in i1_Lcd_Set_Cursor: [wreg+status,2+status,0+pclath+cstack]
  4323                           ;i1Lcd_Set_Cursor@a stored from wreg
  4324  0F65  00F7               	movwf	i1Lcd_Set_Cursor@a
  4325                           
  4326                           ;lib.h: 178: char temp,z,y;
  4327                           ;lib.h: 179: if(a == 1)
  4328  0F66  0377               	decf	i1Lcd_Set_Cursor@a,w
  4329  0F67  1D03               	btfss	3,2
  4330  0F68  2F8A               	goto	i1l2126
  4331                           
  4332                           ;lib.h: 180: {
  4333                           ;lib.h: 181: temp = 0x80 + b - 1;
  4334  0F69  0874               	movf	i1Lcd_Set_Cursor@b,w
  4335  0F6A  3E7F               	addlw	127
  4336  0F6B  00F5               	movwf	??i1_Lcd_Set_Cursor
  4337  0F6C  0875               	movf	??i1_Lcd_Set_Cursor,w
  4338  0F6D  00FA               	movwf	i1Lcd_Set_Cursor@temp
  4339                           
  4340                           ;lib.h: 182: z = temp>>4;
  4341  0F6E  087A               	movf	i1Lcd_Set_Cursor@temp,w
  4342  0F6F  00F5               	movwf	??i1_Lcd_Set_Cursor
  4343  0F70  3004               	movlw	4
  4344  0F71                     u157_25:	
  4345  0F71  1003               	clrc
  4346  0F72  0CF5               	rrf	??i1_Lcd_Set_Cursor,f
  4347  0F73  3EFF               	addlw	-1
  4348  0F74  1D03               	skipz
  4349  0F75  2F71               	goto	u157_25
  4350  0F76  0875               	movf	??i1_Lcd_Set_Cursor,w
  4351  0F77  00F6               	movwf	??i1_Lcd_Set_Cursor+1
  4352  0F78  0876               	movf	??i1_Lcd_Set_Cursor+1,w
  4353  0F79  00F8               	movwf	i1Lcd_Set_Cursor@z
  4354                           
  4355                           ;lib.h: 183: y = temp & 0x0F;
  4356  0F7A  087A               	movf	i1Lcd_Set_Cursor@temp,w
  4357  0F7B  390F               	andlw	15
  4358  0F7C  00F5               	movwf	??i1_Lcd_Set_Cursor
  4359  0F7D  0875               	movf	??i1_Lcd_Set_Cursor,w
  4360  0F7E  00F9               	movwf	i1Lcd_Set_Cursor@y
  4361                           
  4362                           ;lib.h: 184: Lcd_Cmd(z);
  4363  0F7F  0878               	movf	i1Lcd_Set_Cursor@z,w
  4364  0F80  120A  158A  258C  120A  158A  	fcall	i1_Lcd_Cmd
  4365                           
  4366                           ;lib.h: 185: Lcd_Cmd(y);
  4367  0F85  0879               	movf	i1Lcd_Set_Cursor@y,w
  4368  0F86  120A  158A  258C   	fcall	i1_Lcd_Cmd
  4369                           
  4370                           ;lib.h: 186: }
  4371  0F89  0008               	return
  4372  0F8A                     i1l2126:	
  4373                           
  4374                           ;lib.h: 187: else if(a == 2)
  4375  0F8A  3002               	movlw	2
  4376  0F8B  0677               	xorwf	i1Lcd_Set_Cursor@a,w
  4377  0F8C  1D03               	btfss	3,2
  4378  0F8D  0008               	return
  4379                           
  4380                           ;lib.h: 188: {
  4381                           ;lib.h: 189: temp = 0xC0 + b - 1;
  4382  0F8E  0874               	movf	i1Lcd_Set_Cursor@b,w
  4383  0F8F  3EBF               	addlw	191
  4384  0F90  00F5               	movwf	??i1_Lcd_Set_Cursor
  4385  0F91  0875               	movf	??i1_Lcd_Set_Cursor,w
  4386  0F92  00FA               	movwf	i1Lcd_Set_Cursor@temp
  4387                           
  4388                           ;lib.h: 190: z = temp>>4;
  4389  0F93  087A               	movf	i1Lcd_Set_Cursor@temp,w
  4390  0F94  00F5               	movwf	??i1_Lcd_Set_Cursor
  4391  0F95  3004               	movlw	4
  4392  0F96                     u159_25:	
  4393  0F96  1003               	clrc
  4394  0F97  0CF5               	rrf	??i1_Lcd_Set_Cursor,f
  4395  0F98  3EFF               	addlw	-1
  4396  0F99  1D03               	skipz
  4397  0F9A  2F96               	goto	u159_25
  4398  0F9B  0875               	movf	??i1_Lcd_Set_Cursor,w
  4399  0F9C  00F6               	movwf	??i1_Lcd_Set_Cursor+1
  4400  0F9D  0876               	movf	??i1_Lcd_Set_Cursor+1,w
  4401  0F9E  00F8               	movwf	i1Lcd_Set_Cursor@z
  4402                           
  4403                           ;lib.h: 191: y = temp & 0x0F;
  4404  0F9F  087A               	movf	i1Lcd_Set_Cursor@temp,w
  4405  0FA0  390F               	andlw	15
  4406  0FA1  00F5               	movwf	??i1_Lcd_Set_Cursor
  4407  0FA2  0875               	movf	??i1_Lcd_Set_Cursor,w
  4408  0FA3  00F9               	movwf	i1Lcd_Set_Cursor@y
  4409                           
  4410                           ;lib.h: 192: Lcd_Cmd(z);
  4411  0FA4  0878               	movf	i1Lcd_Set_Cursor@z,w
  4412  0FA5  120A  158A  258C  120A  158A  	fcall	i1_Lcd_Cmd
  4413                           
  4414                           ;lib.h: 193: Lcd_Cmd(y);
  4415  0FAA  0879               	movf	i1Lcd_Set_Cursor@y,w
  4416  0FAB  120A  158A  258C   	fcall	i1_Lcd_Cmd
  4417  0FAE  0008               	return
  4418  0FAF                     __end_ofi1_Lcd_Set_Cursor:	
  4419                           
  4420                           	psect	text19
  4421  0CCE                     __ptext19:	
  4422 ;; *************** function i1_Lcd_Clear *****************
  4423 ;; Defined at:
  4424 ;;		line 170 in file "lib.h"
  4425 ;; Parameters:    Size  Location     Type
  4426 ;;		None
  4427 ;; Auto vars:     Size  Location     Type
  4428 ;;		None
  4429 ;; Return value:  Size  Location     Type
  4430 ;;                  2    0[None  ] int 
  4431 ;; Registers used:
  4432 ;;		wreg, status,2, status,0, pclath, cstack
  4433 ;; Tracked objects:
  4434 ;;		On entry : 0/0
  4435 ;;		On exit  : 0/0
  4436 ;;		Unchanged: 0/0
  4437 ;; Data sizes:     COMMON   BANK0   BANK1   BANK3   BANK2
  4438 ;;      Params:         0       0       0       0       0
  4439 ;;      Locals:         0       0       0       0       0
  4440 ;;      Temps:          0       0       0       0       0
  4441 ;;      Totals:         0       0       0       0       0
  4442 ;;Total ram usage:        0 bytes
  4443 ;; Hardware stack levels used:    1
  4444 ;; Hardware stack levels required when called:    2
  4445 ;; This function calls:
  4446 ;;		i1_Lcd_Cmd
  4447 ;; This function is called by:
  4448 ;;		_ISR
  4449 ;; This function uses a non-reentrant model
  4450 ;;
  4451                           
  4452                           
  4453                           ;psect for function i1_Lcd_Clear
  4454  0CCE                     i1_Lcd_Clear:	
  4455                           
  4456                           ;lib.h: 172: Lcd_Cmd(0);
  4457                           
  4458                           ;incstack = 0
  4459                           ; Regs used in i1_Lcd_Clear: [wreg+status,2+status,0+pclath+cstack]
  4460  0CCE  3000               	movlw	0
  4461  0CCF  120A  158A  258C  120A  158A  	fcall	i1_Lcd_Cmd
  4462                           
  4463                           ;lib.h: 173: Lcd_Cmd(1);
  4464  0CD4  3001               	movlw	1
  4465  0CD5  120A  158A  258C   	fcall	i1_Lcd_Cmd
  4466  0CD8  0008               	return
  4467  0CD9                     __end_ofi1_Lcd_Clear:	
  4468                           
  4469                           	psect	text20
  4470  0D8C                     __ptext20:	
  4471 ;; *************** function i1_Lcd_Cmd *****************
  4472 ;; Defined at:
  4473 ;;		line 160 in file "lib.h"
  4474 ;; Parameters:    Size  Location     Type
  4475 ;;  a               1    wreg     unsigned char 
  4476 ;; Auto vars:     Size  Location     Type
  4477 ;;  a               1    3[COMMON] unsigned char 
  4478 ;; Return value:  Size  Location     Type
  4479 ;;                  1    wreg      void 
  4480 ;; Registers used:
  4481 ;;		wreg, status,2, status,0, pclath, cstack
  4482 ;; Tracked objects:
  4483 ;;		On entry : 0/0
  4484 ;;		On exit  : 0/0
  4485 ;;		Unchanged: 0/0
  4486 ;; Data sizes:     COMMON   BANK0   BANK1   BANK3   BANK2
  4487 ;;      Params:         0       0       0       0       0
  4488 ;;      Locals:         1       0       0       0       0
  4489 ;;      Temps:          2       0       0       0       0
  4490 ;;      Totals:         3       0       0       0       0
  4491 ;;Total ram usage:        3 bytes
  4492 ;; Hardware stack levels used:    1
  4493 ;; Hardware stack levels required when called:    1
  4494 ;; This function calls:
  4495 ;;		i1_Lcd_Port
  4496 ;; This function is called by:
  4497 ;;		i1_Lcd_Clear
  4498 ;;		i1_Lcd_Set_Cursor
  4499 ;; This function uses a non-reentrant model
  4500 ;;
  4501                           
  4502                           
  4503                           ;psect for function i1_Lcd_Cmd
  4504  0D8C                     i1_Lcd_Cmd:	
  4505                           
  4506                           ;incstack = 0
  4507                           ; Regs used in i1_Lcd_Cmd: [wreg+status,2+status,0+pclath+cstack]
  4508                           ;i1Lcd_Cmd@a stored from wreg
  4509  0D8C  00F3               	movwf	i1Lcd_Cmd@a
  4510                           
  4511                           ;lib.h: 162: RD1 = 0;
  4512  0D8D  1283               	bcf	3,5	;RP0=0, select bank0
  4513  0D8E  1303               	bcf	3,6	;RP1=0, select bank0
  4514  0D8F  1088               	bcf	8,1	;volatile
  4515                           
  4516                           ;lib.h: 163: RD2=0;
  4517  0D90  1108               	bcf	8,2	;volatile
  4518                           
  4519                           ;lib.h: 164: Lcd_Port(a);
  4520  0D91  0873               	movf	i1Lcd_Cmd@a,w
  4521  0D92  120A  158A  2572  120A  158A  	fcall	i1_Lcd_Port
  4522                           
  4523                           ;lib.h: 165: RD0 = 1;
  4524  0D97  1283               	bcf	3,5	;RP0=0, select bank0
  4525  0D98  1303               	bcf	3,6	;RP1=0, select bank0
  4526  0D99  1408               	bsf	8,0	;volatile
  4527                           
  4528                           ;lib.h: 166: _delay((unsigned long)((4)*(20000000/4000.0)));
  4529  0D9A  301A               	movlw	26
  4530  0D9B  00F2               	movwf	??i1_Lcd_Cmd+1
  4531  0D9C  30F8               	movlw	248
  4532  0D9D  00F1               	movwf	??i1_Lcd_Cmd
  4533  0D9E                     u284_27:	
  4534  0D9E  0BF1               	decfsz	??i1_Lcd_Cmd,f
  4535  0D9F  2D9E               	goto	u284_27
  4536  0DA0  0BF2               	decfsz	??i1_Lcd_Cmd+1,f
  4537  0DA1  2D9E               	goto	u284_27
  4538  0DA2  0000               	nop
  4539                           
  4540                           ;lib.h: 167: RD0 = 0;
  4541  0DA3  1283               	bcf	3,5	;RP0=0, select bank0
  4542  0DA4  1303               	bcf	3,6	;RP1=0, select bank0
  4543  0DA5  1008               	bcf	8,0	;volatile
  4544  0DA6  0008               	return
  4545  0DA7                     __end_ofi1_Lcd_Cmd:	
  4546                           
  4547                           	psect	text21
  4548  0D72                     __ptext21:	
  4549 ;; *************** function i1_Lcd_Port *****************
  4550 ;; Defined at:
  4551 ;;		line 138 in file "lib.h"
  4552 ;; Parameters:    Size  Location     Type
  4553 ;;  a               1    wreg     unsigned char 
  4554 ;; Auto vars:     Size  Location     Type
  4555 ;;  a               1    0[COMMON] unsigned char 
  4556 ;; Return value:  Size  Location     Type
  4557 ;;                  1    wreg      void 
  4558 ;; Registers used:
  4559 ;;		wreg
  4560 ;; Tracked objects:
  4561 ;;		On entry : 0/0
  4562 ;;		On exit  : 0/0
  4563 ;;		Unchanged: 0/0
  4564 ;; Data sizes:     COMMON   BANK0   BANK1   BANK3   BANK2
  4565 ;;      Params:         0       0       0       0       0
  4566 ;;      Locals:         1       0       0       0       0
  4567 ;;      Temps:          0       0       0       0       0
  4568 ;;      Totals:         1       0       0       0       0
  4569 ;;Total ram usage:        1 bytes
  4570 ;; Hardware stack levels used:    1
  4571 ;; This function calls:
  4572 ;;		Nothing
  4573 ;; This function is called by:
  4574 ;;		i1_Lcd_Cmd
  4575 ;;		i1_Lcd_Write_Char
  4576 ;; This function uses a non-reentrant model
  4577 ;;
  4578                           
  4579                           
  4580                           ;psect for function i1_Lcd_Port
  4581  0D72                     i1_Lcd_Port:	
  4582                           
  4583                           ;incstack = 0
  4584                           ; Regs used in i1_Lcd_Port: [wreg]
  4585                           ;i1Lcd_Port@a stored from wreg
  4586  0D72  00F0               	movwf	i1Lcd_Port@a
  4587                           
  4588                           ;lib.h: 140: if(a & 1)
  4589  0D73  1C70               	btfss	i1Lcd_Port@a,0
  4590  0D74  2D79               	goto	i1l213
  4591                           
  4592                           ;lib.h: 141: RD4 = 1;
  4593  0D75  1283               	bcf	3,5	;RP0=0, select bank0
  4594  0D76  1303               	bcf	3,6	;RP1=0, select bank0
  4595  0D77  1608               	bsf	8,4	;volatile
  4596  0D78  2D7C               	goto	i1l214
  4597  0D79                     i1l213:	
  4598                           
  4599                           ;lib.h: 142: else
  4600                           ;lib.h: 143: RD4 = 0;
  4601  0D79  1283               	bcf	3,5	;RP0=0, select bank0
  4602  0D7A  1303               	bcf	3,6	;RP1=0, select bank0
  4603  0D7B  1208               	bcf	8,4	;volatile
  4604  0D7C                     i1l214:	
  4605                           
  4606                           ;lib.h: 145: if(a & 2)
  4607  0D7C  1CF0               	btfss	i1Lcd_Port@a,1
  4608  0D7D  2D80               	goto	i1l215
  4609                           
  4610                           ;lib.h: 146: RD5 = 1;
  4611  0D7E  1688               	bsf	8,5	;volatile
  4612  0D7F  2D81               	goto	i1l216
  4613  0D80                     i1l215:	
  4614                           
  4615                           ;lib.h: 147: else
  4616                           ;lib.h: 148: RD5 = 0;
  4617  0D80  1288               	bcf	8,5	;volatile
  4618  0D81                     i1l216:	
  4619                           
  4620                           ;lib.h: 150: if(a & 4)
  4621  0D81  1D70               	btfss	i1Lcd_Port@a,2
  4622  0D82  2D85               	goto	i1l217
  4623                           
  4624                           ;lib.h: 151: RD6 = 1;
  4625  0D83  1708               	bsf	8,6	;volatile
  4626  0D84  2D86               	goto	i1l218
  4627  0D85                     i1l217:	
  4628                           
  4629                           ;lib.h: 152: else
  4630                           ;lib.h: 153: RD6 = 0;
  4631  0D85  1308               	bcf	8,6	;volatile
  4632  0D86                     i1l218:	
  4633                           
  4634                           ;lib.h: 155: if(a & 8)
  4635  0D86  1DF0               	btfss	i1Lcd_Port@a,3
  4636  0D87  2D8A               	goto	i1l219
  4637                           
  4638                           ;lib.h: 156: RD7 = 1;
  4639  0D88  1788               	bsf	8,7	;volatile
  4640  0D89  0008               	return
  4641  0D8A                     i1l219:	
  4642                           
  4643                           ;lib.h: 157: else
  4644                           ;lib.h: 158: RD7 = 0;
  4645  0D8A  1388               	bcf	8,7	;volatile
  4646  0D8B  0008               	return
  4647  0D8C                     __end_ofi1_Lcd_Port:	
  4648                           
  4649                           	psect	text22
  4650  0D58                     __ptext22:	
  4651 ;; *************** function _strcpy *****************
  4652 ;; Defined at:
  4653 ;;		line 8 in file "C:\Program Files\Microchip\xc8\v1.45\sources\common\strcpy.c"
  4654 ;; Parameters:    Size  Location     Type
  4655 ;;  to              1    wreg     PTR unsigned char 
  4656 ;;		 -> temp(10), 
  4657 ;;  from            1    0[COMMON] PTR const unsigned char 
  4658 ;;		 -> c1(5), b(5), a1(5), 
  4659 ;; Auto vars:     Size  Location     Type
  4660 ;;  to              1    3[COMMON] PTR unsigned char 
  4661 ;;		 -> temp(10), 
  4662 ;;  cp              1    2[COMMON] PTR unsigned char 
  4663 ;;		 -> temp(10), 
  4664 ;; Return value:  Size  Location     Type
  4665 ;;                  1    wreg      PTR unsigned char 
  4666 ;; Registers used:
  4667 ;;		wreg, fsr0l, fsr0h, status,2, status,0
  4668 ;; Tracked objects:
  4669 ;;		On entry : 0/0
  4670 ;;		On exit  : 0/0
  4671 ;;		Unchanged: 0/0
  4672 ;; Data sizes:     COMMON   BANK0   BANK1   BANK3   BANK2
  4673 ;;      Params:         1       0       0       0       0
  4674 ;;      Locals:         2       0       0       0       0
  4675 ;;      Temps:          1       0       0       0       0
  4676 ;;      Totals:         4       0       0       0       0
  4677 ;;Total ram usage:        4 bytes
  4678 ;; Hardware stack levels used:    1
  4679 ;; This function calls:
  4680 ;;		Nothing
  4681 ;; This function is called by:
  4682 ;;		_ISR
  4683 ;; This function uses a non-reentrant model
  4684 ;;
  4685                           
  4686                           
  4687                           ;psect for function _strcpy
  4688  0D58                     _strcpy:	
  4689                           
  4690                           ;incstack = 0
  4691                           ; Regs used in _strcpy: [wreg-fsr0h+status,2+status,0]
  4692                           ;strcpy@to stored from wreg
  4693  0D58  00F3               	movwf	strcpy@to
  4694  0D59  0873               	movf	strcpy@to,w
  4695  0D5A  00F1               	movwf	??_strcpy
  4696  0D5B  0871               	movf	??_strcpy,w
  4697  0D5C  00F2               	movwf	strcpy@cp
  4698  0D5D                     i1l2112:	
  4699  0D5D  0870               	movf	strcpy@from,w
  4700  0D5E  0084               	movwf	4
  4701  0D5F  1383               	bcf	3,7	;select IRP bank0
  4702  0D60  0800               	movf	0,w
  4703  0D61  00F1               	movwf	??_strcpy
  4704  0D62  0872               	movf	strcpy@cp,w
  4705  0D63  0084               	movwf	4
  4706  0D64  0871               	movf	??_strcpy,w
  4707  0D65  0080               	movwf	0
  4708  0D66  0800               	movf	0,w
  4709  0D67  1903               	btfsc	3,2
  4710  0D68  0008               	return
  4711  0D69  3001               	movlw	1
  4712  0D6A  00F1               	movwf	??_strcpy
  4713  0D6B  0871               	movf	??_strcpy,w
  4714  0D6C  07F2               	addwf	strcpy@cp,f
  4715  0D6D  3001               	movlw	1
  4716  0D6E  00F1               	movwf	??_strcpy
  4717  0D6F  0871               	movf	??_strcpy,w
  4718  0D70  07F0               	addwf	strcpy@from,f
  4719  0D71  2D5D               	goto	i1l2112
  4720  0D72                     __end_of_strcpy:	
  4721                           ;	Return value of _strcpy is never used
  4722                           
  4723                           
  4724                           	psect	text23
  4725  03FA                     __ptext23:	
  4726 ;; *************** function _UART_Read *****************
  4727 ;; Defined at:
  4728 ;;		line 60 in file "lib.h"
  4729 ;; Parameters:    Size  Location     Type
  4730 ;;		None
  4731 ;; Auto vars:     Size  Location     Type
  4732 ;;		None
  4733 ;; Return value:  Size  Location     Type
  4734 ;;                  1    wreg      unsigned char 
  4735 ;; Registers used:
  4736 ;;		wreg
  4737 ;; Tracked objects:
  4738 ;;		On entry : 0/0
  4739 ;;		On exit  : 0/0
  4740 ;;		Unchanged: 0/0
  4741 ;; Data sizes:     COMMON   BANK0   BANK1   BANK3   BANK2
  4742 ;;      Params:         0       0       0       0       0
  4743 ;;      Locals:         0       0       0       0       0
  4744 ;;      Temps:          0       0       0       0       0
  4745 ;;      Totals:         0       0       0       0       0
  4746 ;;Total ram usage:        0 bytes
  4747 ;; Hardware stack levels used:    1
  4748 ;; This function calls:
  4749 ;;		Nothing
  4750 ;; This function is called by:
  4751 ;;		_ISR
  4752 ;;		_UART_Read_Text
  4753 ;; This function uses a non-reentrant model
  4754 ;;
  4755                           
  4756                           
  4757                           ;psect for function _UART_Read
  4758  03FA                     _UART_Read:	
  4759  03FA                     i1l185:	
  4760                           ;lib.h: 63: while(!RCIF);
  4761                           
  4762                           ;incstack = 0
  4763                           ; Regs used in _UART_Read: [wreg]
  4764                           
  4765  03FA  1283               	bcf	3,5	;RP0=0, select bank0
  4766  03FB  1303               	bcf	3,6	;RP1=0, select bank0
  4767  03FC  1E8C               	btfss	12,5	;volatile
  4768  03FD  2BFA               	goto	i1l185
  4769                           
  4770                           ;lib.h: 64: return RCREG;
  4771  03FE  081A               	movf	26,w	;volatile
  4772  03FF  0008               	return
  4773  0400                     __end_of_UART_Read:	
  4774                           
  4775                           	psect	text24
  4776  0CC0                     __ptext24:	
  4777 ;; *************** function _UART_Data_Ready *****************
  4778 ;; Defined at:
  4779 ;;		line 56 in file "lib.h"
  4780 ;; Parameters:    Size  Location     Type
  4781 ;;		None
  4782 ;; Auto vars:     Size  Location     Type
  4783 ;;		None
  4784 ;; Return value:  Size  Location     Type
  4785 ;;                  1    wreg      unsigned char 
  4786 ;; Registers used:
  4787 ;;		wreg
  4788 ;; Tracked objects:
  4789 ;;		On entry : 0/0
  4790 ;;		On exit  : 0/0
  4791 ;;		Unchanged: 0/0
  4792 ;; Data sizes:     COMMON   BANK0   BANK1   BANK3   BANK2
  4793 ;;      Params:         0       0       0       0       0
  4794 ;;      Locals:         0       0       0       0       0
  4795 ;;      Temps:          0       0       0       0       0
  4796 ;;      Totals:         0       0       0       0       0
  4797 ;;Total ram usage:        0 bytes
  4798 ;; Hardware stack levels used:    1
  4799 ;; This function calls:
  4800 ;;		Nothing
  4801 ;; This function is called by:
  4802 ;;		_ISR
  4803 ;; This function uses a non-reentrant model
  4804 ;;
  4805                           
  4806                           
  4807                           ;psect for function _UART_Data_Ready
  4808  0CC0                     _UART_Data_Ready:	
  4809                           
  4810                           ;lib.h: 58: return RCIF;
  4811                           
  4812                           ;incstack = 0
  4813                           ; Regs used in _UART_Data_Ready: [wreg]
  4814  0CC0  3000               	movlw	0
  4815  0CC1  1283               	bcf	3,5	;RP0=0, select bank0
  4816  0CC2  1303               	bcf	3,6	;RP1=0, select bank0
  4817  0CC3  1A8C               	btfsc	12,5	;volatile
  4818  0CC4  3001               	movlw	1
  4819  0CC5  0008               	return
  4820  0CC6                     __end_of_UART_Data_Ready:	
  4821                           
  4822                           	psect	text25
  4823  04E3                     __ptext25:	
  4824 ;; *************** function _GSM_Send *****************
  4825 ;; Defined at:
  4826 ;;		line 89 in file "lib.h"
  4827 ;; Parameters:    Size  Location     Type
  4828 ;;  n               1    wreg     PTR unsigned char 
  4829 ;;		 -> STR_17(11), STR_16(11), STR_15(11), STR_12(11), 
  4830 ;;  m               2   10[COMMON] PTR unsigned char 
  4831 ;;		 -> c1(5), b(5), a1(5), STR_13(57), 
  4832 ;; Auto vars:     Size  Location     Type
  4833 ;;  n               1   12[COMMON] PTR unsigned char 
  4834 ;;		 -> STR_17(11), STR_16(11), STR_15(11), STR_12(11), 
  4835 ;;  i               2    0        int 
  4836 ;; Return value:  Size  Location     Type
  4837 ;;                  1    wreg      void 
  4838 ;; Registers used:
  4839 ;;		wreg, fsr0l, fsr0h, status,2, status,0, btemp+1, pclath, cstack
  4840 ;; Tracked objects:
  4841 ;;		On entry : 0/0
  4842 ;;		On exit  : 0/0
  4843 ;;		Unchanged: 0/0
  4844 ;; Data sizes:     COMMON   BANK0   BANK1   BANK3   BANK2
  4845 ;;      Params:         2       0       0       0       0
  4846 ;;      Locals:         1       0       0       0       0
  4847 ;;      Temps:          0       3       0       0       0
  4848 ;;      Totals:         3       3       0       0       0
  4849 ;;Total ram usage:        6 bytes
  4850 ;; Hardware stack levels used:    1
  4851 ;; Hardware stack levels required when called:    2
  4852 ;; This function calls:
  4853 ;;		i1_UART_Init
  4854 ;;		i1_UART_Send
  4855 ;;		i1_UART_Write
  4856 ;; This function is called by:
  4857 ;;		_ISR
  4858 ;; This function uses a non-reentrant model
  4859 ;;
  4860                           
  4861                           
  4862                           ;psect for function _GSM_Send
  4863  04E3                     _GSM_Send:	
  4864                           
  4865                           ;incstack = 0
  4866                           ; Regs used in _GSM_Send: [wreg-fsr0h+status,2+status,0+btemp+1+pclath+cstack]
  4867                           ;GSM_Send@n stored from wreg
  4868  04E3  00FC               	movwf	GSM_Send@n
  4869                           
  4870                           ;lib.h: 92: int i;
  4871                           ;lib.h: 93: UART_Init();
  4872  04E4  120A  158A  25A7  120A  118A  	fcall	i1_UART_Init
  4873                           
  4874                           ;lib.h: 94: UART_Send(AT);
  4875  04E9  303E               	movlw	(low (_AT| 0))& (0+255)
  4876  04EA  00F3               	movwf	i1UART_Send@s
  4877  04EB  3000               	movlw	0
  4878  04EC  00F4               	movwf	i1UART_Send@s+1
  4879  04ED  120A  158A  26EA  120A  118A  	fcall	i1_UART_Send
  4880                           
  4881                           ;lib.h: 95: UART_Write(0X0D);
  4882  04F2  300D               	movlw	13
  4883  04F3  120A  158A  24EA  120A  118A  	fcall	i1_UART_Write
  4884                           
  4885                           ;lib.h: 96: _delay((unsigned long)((1000)*(20000000/4000.0)));
  4886  04F8  301A               	movlw	26
  4887  04F9  1283               	bcf	3,5	;RP0=0, select bank0
  4888  04FA  1303               	bcf	3,6	;RP1=0, select bank0
  4889  04FB  00D6               	movwf	??_GSM_Send+2
  4890  04FC  305E               	movlw	94
  4891  04FD  00D5               	movwf	??_GSM_Send+1
  4892  04FE  306D               	movlw	109
  4893  04FF  00D4               	movwf	??_GSM_Send
  4894  0500                     u285_27:	
  4895  0500  0BD4               	decfsz	??_GSM_Send,f
  4896  0501  2D00               	goto	u285_27
  4897  0502  0BD5               	decfsz	??_GSM_Send+1,f
  4898  0503  2D00               	goto	u285_27
  4899  0504  0BD6               	decfsz	??_GSM_Send+2,f
  4900  0505  2D00               	goto	u285_27
  4901  0506  2D07               	nop2
  4902                           
  4903                           ;lib.h: 97: UART_Send(noecho);
  4904  0507  3039               	movlw	(low (_noecho| 0))& (0+255)
  4905  0508  00F3               	movwf	i1UART_Send@s
  4906  0509  3000               	movlw	0
  4907  050A  00F4               	movwf	i1UART_Send@s+1
  4908  050B  120A  158A  26EA  120A  118A  	fcall	i1_UART_Send
  4909                           
  4910                           ;lib.h: 98: UART_Write(0X0D);
  4911  0510  300D               	movlw	13
  4912  0511  120A  158A  24EA  120A  118A  	fcall	i1_UART_Write
  4913                           
  4914                           ;lib.h: 99: _delay((unsigned long)((1000)*(20000000/4000.0)));
  4915  0516  301A               	movlw	26
  4916  0517  1283               	bcf	3,5	;RP0=0, select bank0
  4917  0518  1303               	bcf	3,6	;RP1=0, select bank0
  4918  0519  00D6               	movwf	??_GSM_Send+2
  4919  051A  305E               	movlw	94
  4920  051B  00D5               	movwf	??_GSM_Send+1
  4921  051C  306D               	movlw	109
  4922  051D  00D4               	movwf	??_GSM_Send
  4923  051E                     u286_27:	
  4924  051E  0BD4               	decfsz	??_GSM_Send,f
  4925  051F  2D1E               	goto	u286_27
  4926  0520  0BD5               	decfsz	??_GSM_Send+1,f
  4927  0521  2D1E               	goto	u286_27
  4928  0522  0BD6               	decfsz	??_GSM_Send+2,f
  4929  0523  2D1E               	goto	u286_27
  4930  0524  2D25               	nop2
  4931                           
  4932                           ;lib.h: 100: UART_Send(mode_text);
  4933  0525  30E0               	movlw	(low (_mode_text| 0))& (0+255)
  4934  0526  00F3               	movwf	i1UART_Send@s
  4935  0527  3000               	movlw	0
  4936  0528  00F4               	movwf	i1UART_Send@s+1
  4937  0529  120A  158A  26EA  120A  118A  	fcall	i1_UART_Send
  4938                           
  4939                           ;lib.h: 101: UART_Write(0X0D);
  4940  052E  300D               	movlw	13
  4941  052F  120A  158A  24EA  120A  118A  	fcall	i1_UART_Write
  4942                           
  4943                           ;lib.h: 102: _delay((unsigned long)((1000)*(20000000/4000.0)));
  4944  0534  301A               	movlw	26
  4945  0535  1283               	bcf	3,5	;RP0=0, select bank0
  4946  0536  1303               	bcf	3,6	;RP1=0, select bank0
  4947  0537  00D6               	movwf	??_GSM_Send+2
  4948  0538  305E               	movlw	94
  4949  0539  00D5               	movwf	??_GSM_Send+1
  4950  053A  306D               	movlw	109
  4951  053B  00D4               	movwf	??_GSM_Send
  4952  053C                     u287_27:	
  4953  053C  0BD4               	decfsz	??_GSM_Send,f
  4954  053D  2D3C               	goto	u287_27
  4955  053E  0BD5               	decfsz	??_GSM_Send+1,f
  4956  053F  2D3C               	goto	u287_27
  4957  0540  0BD6               	decfsz	??_GSM_Send+2,f
  4958  0541  2D3C               	goto	u287_27
  4959  0542  2D43               	nop2
  4960                           
  4961                           ;lib.h: 103: UART_Send("AT+CMGS=\"");
  4962  0543  30B8               	movlw	(low ((STR_1-__stringbase)| (0+32768)))& (0+255)
  4963  0544  00F3               	movwf	i1UART_Send@s
  4964  0545  3080               	movlw	128
  4965  0546  00F4               	movwf	i1UART_Send@s+1
  4966  0547  120A  158A  26EA  120A  118A  	fcall	i1_UART_Send
  4967                           
  4968                           ;lib.h: 104: UART_Send(n);
  4969  054C  087C               	movf	GSM_Send@n,w
  4970  054D  00F3               	movwf	i1UART_Send@s
  4971  054E  3000               	movlw	0
  4972  054F  1D03               	btfss	3,2
  4973  0550  3080               	movlw	128
  4974  0551  00F4               	movwf	i1UART_Send@s+1
  4975  0552  120A  158A  26EA  120A  118A  	fcall	i1_UART_Send
  4976                           
  4977                           ;lib.h: 105: UART_Send("\"");
  4978  0557  30C0               	movlw	(low (((STR_1+8)-__stringbase)| (0+32768)))& (0+255)
  4979  0558  00F3               	movwf	i1UART_Send@s
  4980  0559  3080               	movlw	128
  4981  055A  00F4               	movwf	i1UART_Send@s+1
  4982  055B  120A  158A  26EA  120A  118A  	fcall	i1_UART_Send
  4983                           
  4984                           ;lib.h: 106: UART_Write(0X0D);
  4985  0560  300D               	movlw	13
  4986  0561  120A  158A  24EA  120A  118A  	fcall	i1_UART_Write
  4987                           
  4988                           ;lib.h: 107: _delay((unsigned long)((1000)*(20000000/4000.0)));
  4989  0566  301A               	movlw	26
  4990  0567  1283               	bcf	3,5	;RP0=0, select bank0
  4991  0568  1303               	bcf	3,6	;RP1=0, select bank0
  4992  0569  00D6               	movwf	??_GSM_Send+2
  4993  056A  305E               	movlw	94
  4994  056B  00D5               	movwf	??_GSM_Send+1
  4995  056C  306D               	movlw	109
  4996  056D  00D4               	movwf	??_GSM_Send
  4997  056E                     u288_27:	
  4998  056E  0BD4               	decfsz	??_GSM_Send,f
  4999  056F  2D6E               	goto	u288_27
  5000  0570  0BD5               	decfsz	??_GSM_Send+1,f
  5001  0571  2D6E               	goto	u288_27
  5002  0572  0BD6               	decfsz	??_GSM_Send+2,f
  5003  0573  2D6E               	goto	u288_27
  5004  0574  2D75               	nop2
  5005                           
  5006                           ;lib.h: 108: UART_Send(m);
  5007  0575  087A               	movf	GSM_Send@m,w
  5008  0576  00F3               	movwf	i1UART_Send@s
  5009  0577  087B               	movf	GSM_Send@m+1,w
  5010  0578  00F4               	movwf	i1UART_Send@s+1
  5011  0579  120A  158A  26EA  120A  118A  	fcall	i1_UART_Send
  5012                           
  5013                           ;lib.h: 109: UART_Write(0X0D);
  5014  057E  300D               	movlw	13
  5015  057F  120A  158A  24EA  120A  118A  	fcall	i1_UART_Write
  5016                           
  5017                           ;lib.h: 110: _delay((unsigned long)((1000)*(20000000/4000.0)));
  5018  0584  301A               	movlw	26
  5019  0585  1283               	bcf	3,5	;RP0=0, select bank0
  5020  0586  1303               	bcf	3,6	;RP1=0, select bank0
  5021  0587  00D6               	movwf	??_GSM_Send+2
  5022  0588  305E               	movlw	94
  5023  0589  00D5               	movwf	??_GSM_Send+1
  5024  058A  306D               	movlw	109
  5025  058B  00D4               	movwf	??_GSM_Send
  5026  058C                     u289_27:	
  5027  058C  0BD4               	decfsz	??_GSM_Send,f
  5028  058D  2D8C               	goto	u289_27
  5029  058E  0BD5               	decfsz	??_GSM_Send+1,f
  5030  058F  2D8C               	goto	u289_27
  5031  0590  0BD6               	decfsz	??_GSM_Send+2,f
  5032  0591  2D8C               	goto	u289_27
  5033  0592  2D93               	nop2
  5034                           
  5035                           ;lib.h: 111: UART_Write(0X1A);
  5036  0593  301A               	movlw	26
  5037  0594  120A  158A  24EA  120A  118A  	fcall	i1_UART_Write
  5038                           
  5039                           ;lib.h: 112: _delay((unsigned long)((1000)*(20000000/4000.0)));
  5040  0599  301A               	movlw	26
  5041  059A  1283               	bcf	3,5	;RP0=0, select bank0
  5042  059B  1303               	bcf	3,6	;RP1=0, select bank0
  5043  059C  00D6               	movwf	??_GSM_Send+2
  5044  059D  305E               	movlw	94
  5045  059E  00D5               	movwf	??_GSM_Send+1
  5046  059F  306D               	movlw	109
  5047  05A0  00D4               	movwf	??_GSM_Send
  5048  05A1                     u290_27:	
  5049  05A1  0BD4               	decfsz	??_GSM_Send,f
  5050  05A2  2DA1               	goto	u290_27
  5051  05A3  0BD5               	decfsz	??_GSM_Send+1,f
  5052  05A4  2DA1               	goto	u290_27
  5053  05A5  0BD6               	decfsz	??_GSM_Send+2,f
  5054  05A6  2DA1               	goto	u290_27
  5055  05A7  2DA8               	nop2
  5056  05A8  0008               	return
  5057  05A9                     __end_of_GSM_Send:	
  5058                           
  5059                           	psect	text26
  5060  0EEA                     __ptext26:	
  5061 ;; *************** function i1_UART_Send *****************
  5062 ;; Defined at:
  5063 ;;		line 50 in file "lib.h"
  5064 ;; Parameters:    Size  Location     Type
  5065 ;;  s               2    3[COMMON] PTR unsigned char 
  5066 ;;		 -> STR_17(11), c1(5), STR_16(11), b(5), 
  5067 ;;		 -> STR_15(11), a1(5), STR_13(57), STR_12(11), 
  5068 ;;		 -> STR_2(2), STR_1(10), mode_text(10), noecho(5), 
  5069 ;;		 -> AT(3), 
  5070 ;; Auto vars:     Size  Location     Type
  5071 ;;  UART_Send       2    8[COMMON] int 
  5072 ;; Return value:  Size  Location     Type
  5073 ;;                  1    wreg      void 
  5074 ;; Registers used:
  5075 ;;		wreg, fsr0l, fsr0h, status,2, status,0, btemp+1, pclath, cstack
  5076 ;; Tracked objects:
  5077 ;;		On entry : 0/0
  5078 ;;		On exit  : 0/0
  5079 ;;		Unchanged: 0/0
  5080 ;; Data sizes:     COMMON   BANK0   BANK1   BANK3   BANK2
  5081 ;;      Params:         2       0       0       0       0
  5082 ;;      Locals:         2       0       0       0       0
  5083 ;;      Temps:          3       0       0       0       0
  5084 ;;      Totals:         7       0       0       0       0
  5085 ;;Total ram usage:        7 bytes
  5086 ;; Hardware stack levels used:    1
  5087 ;; Hardware stack levels required when called:    1
  5088 ;; This function calls:
  5089 ;;		i1_UART_Write
  5090 ;; This function is called by:
  5091 ;;		_GSM_Send
  5092 ;; This function uses a non-reentrant model
  5093 ;;
  5094                           
  5095                           
  5096                           ;psect for function i1_UART_Send
  5097  0EEA                     i1_UART_Send:	
  5098                           
  5099                           ;lib.h: 52: int i;
  5100                           ;lib.h: 53: for(i=0;s[i]!='\0';i++)
  5101                           
  5102                           ;incstack = 0
  5103                           ; Regs used in i1_UART_Send: [wreg-fsr0h+status,2+status,0+btemp+1+pclath+cstack]
  5104  0EEA  01F8               	clrf	i1UART_Send@i
  5105  0EEB  01F9               	clrf	i1UART_Send@i+1
  5106  0EEC                     i1l1904:	
  5107  0EEC  0878               	movf	i1UART_Send@i,w
  5108  0EED  0773               	addwf	i1UART_Send@s,w
  5109  0EEE  00F6               	movwf	??i1_UART_Send+1
  5110  0EEF  0874               	movf	i1UART_Send@s+1,w
  5111  0EF0  00F5               	movwf	??i1_UART_Send
  5112  0EF1  1803               	skipnc
  5113  0EF2  0AF5               	incf	??i1_UART_Send,f
  5114  0EF3  1BF8               	btfsc	i1UART_Send@i,7
  5115  0EF4  03F5               	decf	??i1_UART_Send,f
  5116  0EF5  0875               	movf	??i1_UART_Send,w
  5117  0EF6  00F7               	movwf	??i1_UART_Send+2
  5118  0EF7  0877               	movf	??i1_UART_Send+2,w
  5119  0EF8  1283               	bcf	3,5	;RP0=0, select bank0
  5120  0EF9  1303               	bcf	3,6	;RP1=0, select bank0
  5121  0EFA  00FF               	movwf	127
  5122  0EFB  0876               	movf	??i1_UART_Send+1,w
  5123  0EFC  0084               	movwf	4
  5124  0EFD  120A  118A  2400  120A  158A  	fcall	stringtab
  5125  0F02  3A00               	xorlw	0
  5126  0F03  1903               	btfsc	3,2
  5127  0F04  0008               	return
  5128                           
  5129                           ;lib.h: 54: UART_Write(s[i]);
  5130  0F05  0878               	movf	i1UART_Send@i,w
  5131  0F06  0773               	addwf	i1UART_Send@s,w
  5132  0F07  00F6               	movwf	??i1_UART_Send+1
  5133  0F08  0874               	movf	i1UART_Send@s+1,w
  5134  0F09  00F5               	movwf	??i1_UART_Send
  5135  0F0A  1803               	skipnc
  5136  0F0B  0AF5               	incf	??i1_UART_Send,f
  5137  0F0C  1BF8               	btfsc	i1UART_Send@i,7
  5138  0F0D  03F5               	decf	??i1_UART_Send,f
  5139  0F0E  0875               	movf	??i1_UART_Send,w
  5140  0F0F  00F7               	movwf	??i1_UART_Send+2
  5141  0F10  0877               	movf	??i1_UART_Send+2,w
  5142  0F11  1283               	bcf	3,5	;RP0=0, select bank0
  5143  0F12  1303               	bcf	3,6	;RP1=0, select bank0
  5144  0F13  00FF               	movwf	127
  5145  0F14  0876               	movf	??i1_UART_Send+1,w
  5146  0F15  0084               	movwf	4
  5147  0F16  120A  118A  2400  120A  158A  	fcall	stringtab
  5148  0F1B  120A  158A  24EA  120A  158A  	fcall	i1_UART_Write
  5149  0F20  3001               	movlw	1
  5150  0F21  07F8               	addwf	i1UART_Send@i,f
  5151  0F22  1803               	skipnc
  5152  0F23  0AF9               	incf	i1UART_Send@i+1,f
  5153  0F24  3000               	movlw	0
  5154  0F25  07F9               	addwf	i1UART_Send@i+1,f
  5155  0F26  2EEC               	goto	i1l1904
  5156  0F27                     __end_ofi1_UART_Send:	
  5157                           
  5158                           	psect	text27
  5159  0CEA                     __ptext27:	
  5160 ;; *************** function i1_UART_Write *****************
  5161 ;; Defined at:
  5162 ;;		line 42 in file "lib.h"
  5163 ;; Parameters:    Size  Location     Type
  5164 ;;  data            1    wreg     unsigned char 
  5165 ;; Auto vars:     Size  Location     Type
  5166 ;;  data            1    2[COMMON] unsigned char 
  5167 ;; Return value:  Size  Location     Type
  5168 ;;                  1    wreg      void 
  5169 ;; Registers used:
  5170 ;;		wreg
  5171 ;; Tracked objects:
  5172 ;;		On entry : 0/0
  5173 ;;		On exit  : 0/0
  5174 ;;		Unchanged: 0/0
  5175 ;; Data sizes:     COMMON   BANK0   BANK1   BANK3   BANK2
  5176 ;;      Params:         0       0       0       0       0
  5177 ;;      Locals:         1       0       0       0       0
  5178 ;;      Temps:          2       0       0       0       0
  5179 ;;      Totals:         3       0       0       0       0
  5180 ;;Total ram usage:        3 bytes
  5181 ;; Hardware stack levels used:    1
  5182 ;; This function calls:
  5183 ;;		Nothing
  5184 ;; This function is called by:
  5185 ;;		_GSM_Send
  5186 ;;		i1_UART_Send
  5187 ;; This function uses a non-reentrant model
  5188 ;;
  5189                           
  5190                           
  5191                           ;psect for function i1_UART_Write
  5192  0CEA                     i1_UART_Write:	
  5193                           
  5194                           ;incstack = 0
  5195                           ; Regs used in i1_UART_Write: [wreg]
  5196                           ;i1UART_Write@data stored from wreg
  5197  0CEA  00F2               	movwf	i1UART_Write@data
  5198  0CEB                     i1l170:	
  5199                           ;lib.h: 44: while(!TRMT);
  5200                           
  5201  0CEB  1683               	bsf	3,5	;RP0=1, select bank1
  5202  0CEC  1303               	bcf	3,6	;RP1=0, select bank1
  5203  0CED  1C98               	btfss	24,1	;volatile
  5204  0CEE  2CEB               	goto	i1l170
  5205                           
  5206                           ;lib.h: 45: TXREG = data;
  5207  0CEF  0872               	movf	i1UART_Write@data,w
  5208  0CF0  1283               	bcf	3,5	;RP0=0, select bank0
  5209  0CF1  1303               	bcf	3,6	;RP1=0, select bank0
  5210  0CF2  0099               	movwf	25	;volatile
  5211                           
  5212                           ;lib.h: 46: _delay((unsigned long)((0.5)*(20000000/4000.0)));
  5213  0CF3  3004               	movlw	4
  5214  0CF4  00F1               	movwf	??i1_UART_Write+1
  5215  0CF5  303D               	movlw	61
  5216  0CF6  00F0               	movwf	??i1_UART_Write
  5217  0CF7                     u291_27:	
  5218  0CF7  0BF0               	decfsz	??i1_UART_Write,f
  5219  0CF8  2CF7               	goto	u291_27
  5220  0CF9  0BF1               	decfsz	??i1_UART_Write+1,f
  5221  0CFA  2CF7               	goto	u291_27
  5222  0CFB  2CFC               	nop2
  5223  0CFC  0008               	return
  5224  0CFD                     __end_ofi1_UART_Write:	
  5225                           
  5226                           	psect	text28
  5227  0DA7                     __ptext28:	
  5228 ;; *************** function i1_UART_Init *****************
  5229 ;; Defined at:
  5230 ;;		line 27 in file "lib.h"
  5231 ;; Parameters:    Size  Location     Type
  5232 ;;		None
  5233 ;; Auto vars:     Size  Location     Type
  5234 ;;		None
  5235 ;; Return value:  Size  Location     Type
  5236 ;;                  1    wreg      void 
  5237 ;; Registers used:
  5238 ;;		wreg
  5239 ;; Tracked objects:
  5240 ;;		On entry : 0/0
  5241 ;;		On exit  : 0/0
  5242 ;;		Unchanged: 0/0
  5243 ;; Data sizes:     COMMON   BANK0   BANK1   BANK3   BANK2
  5244 ;;      Params:         0       0       0       0       0
  5245 ;;      Locals:         0       0       0       0       0
  5246 ;;      Temps:          0       0       0       0       0
  5247 ;;      Totals:         0       0       0       0       0
  5248 ;;Total ram usage:        0 bytes
  5249 ;; Hardware stack levels used:    1
  5250 ;; This function calls:
  5251 ;;		Nothing
  5252 ;; This function is called by:
  5253 ;;		_GSM_Send
  5254 ;; This function uses a non-reentrant model
  5255 ;;
  5256                           
  5257                           
  5258                           ;psect for function i1_UART_Init
  5259  0DA7                     i1_UART_Init:	
  5260                           
  5261                           ;lib.h: 29: TRISC7 = 1;
  5262                           
  5263                           ;incstack = 0
  5264                           ; Regs used in i1_UART_Init: [wreg]
  5265  0DA7  1683               	bsf	3,5	;RP0=1, select bank1
  5266  0DA8  1303               	bcf	3,6	;RP1=0, select bank1
  5267  0DA9  1787               	bsf	7,7	;volatile
  5268                           
  5269                           ;lib.h: 30: TRISC6 = 0;
  5270  0DAA  1307               	bcf	7,6	;volatile
  5271                           
  5272                           ;lib.h: 31: TXSTA=0X24;
  5273  0DAB  3024               	movlw	36
  5274  0DAC  0098               	movwf	24	;volatile
  5275                           
  5276                           ;lib.h: 32: BRGH=1;
  5277  0DAD  1518               	bsf	24,2	;volatile
  5278                           
  5279                           ;lib.h: 33: RCSTA=0X90;
  5280  0DAE  3090               	movlw	144
  5281  0DAF  1283               	bcf	3,5	;RP0=0, select bank0
  5282  0DB0  1303               	bcf	3,6	;RP1=0, select bank0
  5283  0DB1  0098               	movwf	24	;volatile
  5284                           
  5285                           ;lib.h: 34: TXEN=1;
  5286  0DB2  1683               	bsf	3,5	;RP0=1, select bank1
  5287  0DB3  1303               	bcf	3,6	;RP1=0, select bank1
  5288  0DB4  1698               	bsf	24,5	;volatile
  5289                           
  5290                           ;lib.h: 35: SPEN=1;
  5291  0DB5  1283               	bcf	3,5	;RP0=0, select bank0
  5292  0DB6  1303               	bcf	3,6	;RP1=0, select bank0
  5293  0DB7  1798               	bsf	24,7	;volatile
  5294                           
  5295                           ;lib.h: 36: SYNC = 0;
  5296  0DB8  1683               	bsf	3,5	;RP0=1, select bank1
  5297  0DB9  1303               	bcf	3,6	;RP1=0, select bank1
  5298  0DBA  1218               	bcf	24,4	;volatile
  5299                           
  5300                           ;lib.h: 37: CREN = 1;
  5301  0DBB  1283               	bcf	3,5	;RP0=0, select bank0
  5302  0DBC  1303               	bcf	3,6	;RP1=0, select bank0
  5303  0DBD  1618               	bsf	24,4	;volatile
  5304                           
  5305                           ;lib.h: 38: TXEN = 1;
  5306  0DBE  1683               	bsf	3,5	;RP0=1, select bank1
  5307  0DBF  1303               	bcf	3,6	;RP1=0, select bank1
  5308  0DC0  1698               	bsf	24,5	;volatile
  5309                           
  5310                           ;lib.h: 39: SPBRG=129;
  5311  0DC1  3081               	movlw	129
  5312  0DC2  0099               	movwf	25	;volatile
  5313  0DC3  0008               	return
  5314  0DC4                     __end_ofi1_UART_Init:	
  5315  007E                     btemp	set	126	;btemp
  5316  007E                     wtemp0	set	126


Data Sizes:
    Strings     211
    Constant    0
    Data        112
    BSS         113
    Persistent  0
    Stack       0

Auto Spaces:
    Space          Size  Autos    Used
    COMMON           14     13      14
    BANK0            80     18      70
    BANK1            80      5      79
    BANK3            96      3      77
    BANK2            96      0      24

Pointer List with Targets:

    strcpy@from	PTR const unsigned char  size(1) Largest target is 5
		 -> c1(BANK0[5]), b(BANK0[5]), a1(BANK0[5]), 

    strcpy@to	PTR unsigned char  size(1) Largest target is 10
		 -> temp(BANK1[10]), 

    strcpy@cp	PTR unsigned char  size(1) Largest target is 10
		 -> temp(BANK1[10]), 

    strcmp@s2	PTR const unsigned char  size(1) Largest target is 10
		 -> temp(BANK1[10]), 

    strcmp@s1	PTR const unsigned char  size(1) Largest target is 10
		 -> z(BANK1[10]), 

    sp__strcpy	PTR unsigned char  size(1) Largest target is 10
		 -> temp(BANK1[10]), 

    Lcd_Write_String@a	PTR unsigned char  size(1) Largest target is 17
		 -> STR_18(CODE[11]), STR_14(CODE[15]), STR_11(CODE[10]), STR_10(CODE[9]), 
		 -> STR_9(CODE[17]), STR_8(CODE[12]), STR_7(CODE[15]), STR_6(CODE[15]), 
		 -> STR_5(CODE[15]), STR_4(CODE[9]), STR_3(CODE[15]), 

    GSM_Send@m	PTR unsigned char  size(2) Largest target is 57
		 -> c1(BANK0[5]), b(BANK0[5]), a1(BANK0[5]), STR_13(CODE[57]), 

    GSM_Send@n	PTR unsigned char  size(1) Largest target is 11
		 -> STR_17(CODE[11]), STR_16(CODE[11]), STR_15(CODE[11]), STR_12(CODE[11]), 

    UART_Send@s	PTR unsigned char  size(2) Largest target is 57
		 -> STR_17(CODE[11]), c1(BANK0[5]), STR_16(CODE[11]), b(BANK0[5]), 
		 -> STR_15(CODE[11]), a1(BANK0[5]), STR_13(CODE[57]), STR_12(CODE[11]), 
		 -> STR_2(CODE[2]), STR_1(CODE[10]), mode_text(BANK1[10]), noecho(BANK0[5]), 
		 -> AT(BANK0[3]), 


Critical Paths under _main in COMMON

    None.

Critical Paths under _ISR in COMMON

    _ISR->_GSM_Send
    i1_Lcd_Write_String->i1_Lcd_Write_Char
    i1_Lcd_Write_Char->i1_Lcd_Port
    i1_Lcd_Set_Cursor->i1_Lcd_Cmd
    i1_Lcd_Clear->i1_Lcd_Cmd
    i1_Lcd_Cmd->i1_Lcd_Port
    _GSM_Send->i1_UART_Send
    i1_UART_Send->i1_UART_Write

Critical Paths under _main in BANK0

    _main->_Lcd_Write_String
    _readKeyboard->_findKey
    _Lcd_Write_String->_Lcd_Write_Char
    _Lcd_Write_Char->_Lcd_Port
    _Lcd_Set_Cursor->_Lcd_Cmd
    _Lcd_Init->_Lcd_Cmd
    _Lcd_Clear->_Lcd_Cmd
    _Lcd_Cmd->_Lcd_Port
    _GSM_Init->_UART_Send
    _UART_Send->_UART_Write

Critical Paths under _ISR in BANK0

    _ISR->_GSM_Send

Critical Paths under _main in BANK1

    _main->_GSM_Init
    _GSM_Init->_UART_Send

Critical Paths under _ISR in BANK1

    None.

Critical Paths under _main in BANK3

    None.

Critical Paths under _ISR in BANK3

    None.

Critical Paths under _main in BANK2

    None.

Critical Paths under _ISR in BANK2

    None.

Call Graph Tables:

 ---------------------------------------------------------------------------------
 (Depth) Function   	        Calls       Base Space   Used Autos Params    Refs
 ---------------------------------------------------------------------------------
 (0) _main                                                 3     3      0    4849
                                              0 BANK3      3     3      0
                           _GSM_Init
                          _Lcd_Clear
                           _Lcd_Init
                     _Lcd_Set_Cursor
                     _Lcd_Write_Char
                   _Lcd_Write_String
                          _UART_Init
                       _readKeyboard
                             _strcmp
 ---------------------------------------------------------------------------------
 (1) _strcmp                                               6     4      2     171
                                             10 BANK0      6     4      2
 ---------------------------------------------------------------------------------
 (1) _readKeyboard                                         5     5      0    1459
                                             14 BANK0      3     3      0
                                              0 BANK1      2     2      0
                            _findKey
 ---------------------------------------------------------------------------------
 (2) _findKey                                              4     0      4    1140
                                             10 BANK0      4     0      4
 ---------------------------------------------------------------------------------
 (1) _Lcd_Write_String                                     3     3      0     714
                                             15 BANK0      3     3      0
                     _Lcd_Write_Char
 ---------------------------------------------------------------------------------
 (2) _Lcd_Write_Char                                       4     4      0     254
                                             11 BANK0      4     4      0
                           _Lcd_Port
 ---------------------------------------------------------------------------------
 (1) _Lcd_Set_Cursor                                       7     6      1    1220
                                             14 BANK0      3     2      1
                                              0 BANK1      4     4      0
                            _Lcd_Cmd
 ---------------------------------------------------------------------------------
 (1) _Lcd_Init                                             2     2      0     279
                                             14 BANK0      2     2      0
                            _Lcd_Cmd
                           _Lcd_Port
 ---------------------------------------------------------------------------------
 (1) _Lcd_Clear                                            0     0      0     155
                            _Lcd_Cmd
 ---------------------------------------------------------------------------------
 (2) _Lcd_Cmd                                              3     3      0     155
                                             11 BANK0      3     3      0
                           _Lcd_Port
 ---------------------------------------------------------------------------------
 (3) _Lcd_Port                                             1     1      0     124
                                             10 BANK0      1     1      0
 ---------------------------------------------------------------------------------
 (1) _GSM_Init                                             5     5      0     597
                                              2 BANK1      3     3      0
                          _UART_Init
                          _UART_Send
                         _UART_Write
 ---------------------------------------------------------------------------------
 (2) _UART_Send                                            7     5      2     566
                                             13 BANK0      5     3      2
                                              0 BANK1      2     2      0
                         _UART_Write
 ---------------------------------------------------------------------------------
 (2) _UART_Write                                           3     3      0      31
                                             10 BANK0      3     3      0
 ---------------------------------------------------------------------------------
 (1) _UART_Init                                            0     0      0       0
 ---------------------------------------------------------------------------------
 Estimated maximum stack depth 3
 ---------------------------------------------------------------------------------
 (Depth) Function   	        Calls       Base Space   Used Autos Params    Refs
 ---------------------------------------------------------------------------------
 (4) _ISR                                                  7     7      0    1831
                                              3 BANK0      7     7      0
                           _GSM_Send
                    _UART_Data_Ready
                          _UART_Read
                             _strcpy
                        i1_Lcd_Clear
                   i1_Lcd_Set_Cursor
                 i1_Lcd_Write_String
 ---------------------------------------------------------------------------------
 (5) i1_Lcd_Write_String                                   3     3      0     268
                                              5 COMMON     3     3      0
                   i1_Lcd_Write_Char
 ---------------------------------------------------------------------------------
 (6) i1_Lcd_Write_Char                                     4     4      0     178
                                              1 COMMON     4     4      0
                         i1_Lcd_Port
 ---------------------------------------------------------------------------------
 (5) i1_Lcd_Set_Cursor                                     7     6      1     458
                                              4 COMMON     7     6      1
                          i1_Lcd_Cmd
 ---------------------------------------------------------------------------------
 (5) i1_Lcd_Clear                                          0     0      0     110
                          i1_Lcd_Cmd
 ---------------------------------------------------------------------------------
 (6) i1_Lcd_Cmd                                            3     3      0     110
                                              1 COMMON     3     3      0
                         i1_Lcd_Port
 ---------------------------------------------------------------------------------
 (7) i1_Lcd_Port                                           1     1      0      88
                                              0 COMMON     1     1      0
 ---------------------------------------------------------------------------------
 (5) _strcpy                                               4     3      1     315
                                              0 COMMON     4     3      1
 ---------------------------------------------------------------------------------
 (5) _UART_Read                                            0     0      0       0
 ---------------------------------------------------------------------------------
 (5) _UART_Data_Ready                                      0     0      0       0
 ---------------------------------------------------------------------------------
 (5) _GSM_Send                                             8     6      2     680
                                             10 COMMON     3     1      2
                                              0 BANK0      3     3      0
                        i1_UART_Init
                        i1_UART_Send
                       i1_UART_Write
 ---------------------------------------------------------------------------------
 (6) i1_UART_Send                                          7     5      2     294
                                              3 COMMON     7     5      2
                       i1_UART_Write
 ---------------------------------------------------------------------------------
 (6) i1_UART_Write                                         3     3      0      22
                                              0 COMMON     3     3      0
 ---------------------------------------------------------------------------------
 (6) i1_UART_Init                                          0     0      0       0
 ---------------------------------------------------------------------------------
 Estimated maximum stack depth 7
 ---------------------------------------------------------------------------------

 Call Graph Graphs:

 _main (ROOT)
   _GSM_Init
     _UART_Init
     _UART_Send
       _UART_Write
     _UART_Write
   _Lcd_Clear
     _Lcd_Cmd
       _Lcd_Port
   _Lcd_Init
     _Lcd_Cmd
       _Lcd_Port
     _Lcd_Port
   _Lcd_Set_Cursor
     _Lcd_Cmd
       _Lcd_Port
   _Lcd_Write_Char
     _Lcd_Port
   _Lcd_Write_String
     _Lcd_Write_Char
       _Lcd_Port
   _UART_Init
   _readKeyboard
     _findKey
   _strcmp

 _ISR (ROOT)
   _GSM_Send
     i1_UART_Init
     i1_UART_Send
       i1_UART_Write
     i1_UART_Write
   _UART_Data_Ready
   _UART_Read
   _strcpy
   i1_Lcd_Clear
     i1_Lcd_Cmd
       i1_Lcd_Port
   i1_Lcd_Set_Cursor
     i1_Lcd_Cmd
       i1_Lcd_Port
   i1_Lcd_Write_String
     i1_Lcd_Write_Char
       i1_Lcd_Port

 Address spaces:
Name               Size   Autos  Total    Cost      Usage
BANK3               60      3      4D       9       80.2%
BITBANK3            60      0       0       8        0.0%
SFR3                 0      0       0       4        0.0%
BITSFR3              0      0       0       4        0.0%
BANK2               60      0      18      11       25.0%
BITBANK2            60      0       0      10        0.0%
SFR2                 0      0       0       5        0.0%
BITSFR2              0      0       0       5        0.0%
BANK1               50      5      4F       7       98.8%
BITBANK1            50      0       0       6        0.0%
SFR1                 0      0       0       2        0.0%
BITSFR1              0      0       0       2        0.0%
BANK0               50     12      46       5       87.5%
BITBANK0            50      0       0       4        0.0%
SFR0                 0      0       0       1        0.0%
BITSFR0              0      0       0       1        0.0%
COMMON               E      D       E       1      100.0%
BITCOMMON            E      0       0       0        0.0%
CODE                 0      0       0       0        0.0%
DATA                 0      0     108      12        0.0%
ABS                  0      0     108       3        0.0%
NULL                 0      0       0       0        0.0%
STACK                0      0       0       2        0.0%
EEDATA             100      0       0       0        0.0%


Microchip Technology PIC Macro Assembler V1.45 build -152302408 
Symbol Table                                                                                   Tue May 22 11:41:07 2018

                          _a 007D                            _b 002F                            _c 004D  
                          _d 01A4                            _e 0190                            _i 0045  
                          _j 0047                            _k 0049                            _r 004B  
                          _t 0028                            _x 004F                            _z 00C1  
                          pc 0002                  __CFG_CP$OFF 0000                           _AT 003E  
                         _a1 0034                           _c1 002A                           _d1 00B7  
                         _d2 00AD                           _t2 0026                           _t3 0043  
                         _t4 0041                           fsr 0004                          l213 0D2F  
                        l214 0D30                          l215 0D34                          l216 0D35  
                        l217 0D39                          l321 05AD                          l170 0D15  
                        l218 0D3A                          l219 0D3E                          l331 05EE  
                        l333 0604                          l334 061A                          _GIE 005F  
                        _RC0 0038                          _RB2 0032                          _RC1 0039  
                        _RB3 0033                          _RD0 0040                          _RB4 0034  
                        _RC2 003A                          _RD1 0041                          _RB5 0035  
                        _RC3 003B                          _RD2 0042                          _RB6 0036  
                        _RB7 0037                          _RD4 0044                          _RD5 0045  
                        _RD6 0046                          _RD7 0047                          _PR2 0092  
               __CFG_CPD$OFF 0000                          _ISR 028D                          _rf1 00D5  
                        fsr0 0004                          indf 0000                 __CFG_FOSC$HS 0000  
               __CFG_LVP$OFF 0000                         ?_ISR 0070                         l2100 0E95  
                       l2104 0EAA                         l2600 069E                         l2520 0654  
                       l2096 0E8D                         l2606 06A4                         l2542 0667  
                       l2632 06BD                         l2624 06B7                         l2616 06B0  
                       l2560 0679                         l2552 0672                         l2536 0661  
                       l2528 065B                         l2712 05C4                         l2720 05D8  
                       l2476 0FB3                         l2716 05CD                         l2708 05BC  
                       l2670 06F8                         l2574 0685                         l2592 0698  
                       l2584 0691                         l2568 067F                         l2752 0098  
                       l2738 0630                         l2696 0E68                         l2890 0163  
                       l2876 0257                         l2798 0112                         STR_1 04C7  
                       STR_2 04CF                         STR_3 0469                         STR_4 04DA  
                       STR_5 0487                         STR_6 0478                         STR_7 0496  
                       STR_8 04A5                         STR_9 0449                         _BRGH 04C2  
                       _CREN 00C4                         u2105 0F39                         u2070 0FE5  
                       u2080 0FC3                         u2325 06D7                         u2345 070C  
                       u2460 0083                         u2470 008C                         u2607 0214  
                       u2480 0095                         u2617 0226                         u2474 0086  
                       u2707 07BD                         u2627 0239                         u2547 00D8  
                       u2484 008F                         u2717 0DF5                         u2637 024B  
                       u2557 0109                         u2727 074B                         u2647 0286  
                       u2567 012F                         u2737 076A                         u2657 0638  
                       u2577 0159                         u2747 0789                         u2667 0F4B  
                       u2587 0180                         _PEIE 005E                         u2757 0D23  
                       u2677 0F5E                         u2597 01BD                         _INTE 005C  
                       _INTF 0059                         u2687 079C                         u2697 07AC  
                       _RCIE 0465                         _RCIF 0065                         _SPEN 00C7  
                       _TRMT 04C1                         _TXEN 04C5                         _SYNC 04C4  
               __CFG_WRT$OFF 0000            ?_Lcd_Write_String 0070                         _main 0068  
                       _freq 0050                         _mesg 0020                         _rfid 00A0  
                       _temp 00CB                         btemp 007E                         start 0012  
         ??_Lcd_Write_String 0063              __end_of_Lcd_Cmd 0DFE                        ??_ISR 0057  
                      ?_main 0070                        _CCP1X 00BD                        _CCP1Y 00BC  
                      _CCP2X 00ED                        _CCP2Y 00EC                        STR_10 04D1  
                      STR_11 043F                        STR_12 04B1                        STR_13 0410  
                      STR_14 045A                        STR_15 04B1                        STR_16 04B1  
                      STR_17 04B1                __CFG_WDTE$OFF 0000                        STR_18 04BC  
           __end_of_GSM_Init 0790                        i1l213 0D79                        i1l214 0D7C  
                      i1l215 0D80                        i1l216 0D81                        i1l217 0D85  
                      i1l170 0CEB                        i1l218 0D86                        i1l219 0D8A  
                      i1l404 02BD                        i1l185 03FA                        i1l409 02FB  
                      i1l418 03ED            ?i1_Lcd_Set_Cursor 0074             __end_of_GSM_Send 05A9  
                      _RCREG 001A                        _RCSTA 0018                        _SPBRG 0099  
                      _PORTA 0005                        _PORTC 0007                        _PORTD 0008  
    __size_of_Lcd_Set_Cursor 006A                        _TRISA 0085                        _TRISD 0088  
                      _TXREG 0019                        _TXSTA 0098                  ?i1_Lcd_Port 0070  
         ??i1_Lcd_Set_Cursor 0075              __end_of_findKey 06C3           __size_ofi1_Lcd_Cmd 001B  
                ?_UART_Write 0070           __size_of_UART_Init 001D           __size_of_UART_Read 0006  
         __size_of_UART_Send 0051                        _param 01B8               __CFG_BOREN$OFF 0000  
                      pclath 000A  __size_ofi1_Lcd_Write_String 0022                        status 0003  
                      wtemp0 007E             __end_of_Lcd_Init 07F1             __end_of_Lcd_Port 0D40  
               ?i1_UART_Init 0070                 ?i1_UART_Send 0073              __initialization 0015  
               __end_of_main 028D                       ??_main 01DA           __size_of_Lcd_Clear 000B  
              ?_readKeyboard 0070                       _ADCON0 001F                       _ADCON1 009F  
                     _CCP1M2 00BA                       _CCP1M3 00BB                       _CCP2M2 00EA  
                     _CCP2M3 00EB                       _ADRESH 001E                       _ADRESL 009E  
                     _CCPR1L 0015                       _CCPR2L 001B                       i1l2112 0D5D  
                     i1l2126 0F8A                       i1l2142 0E22                       i1l2414 03EA  
                     i1l2408 03C9                       i1l2364 02F2                       i1l2356 02D2  
                     i1l1904 0EEC                       i1l2386 035E                       i1l2396 0395  
                     _INTEDG 040E                       u135_25 0EC2                       u157_25 0F71  
                     u159_25 0F96                       u280_27 03C2                       u281_27 03E4  
                     u290_27 05A1                       u282_27 0ED2                       u291_27 0CF7  
                     u283_27 0EE3                       u284_27 0D9E                       u276_27 02B6  
                     u285_27 0500                       u277_27 0321                       u286_27 051E  
                     u278_27 0357                       u287_27 053C                       u279_27 038E  
                     u288_27 056E                       u289_27 058C            ?i1_Lcd_Write_Char 0070  
                  ??_Lcd_Cmd 005F                       _TMR2ON 0092      __size_of_Lcd_Write_Char 003E  
                     _TRISC0 0438                       _TRISB2 0432                       _TRISC1 0439  
                     _TRISB3 0433                       _TRISC2 043A                       _TRISB4 0434  
                     _TRISC3 043B                       _TRISB5 0435                       _TRISB6 0436  
                     _TRISB7 0437                       _TRISC6 043E                       _TRISC7 043F  
               ?i1_Lcd_Clear 0070           ??i1_Lcd_Write_Char 0071               __CFG_PWRTE$OFF 0000  
        __size_ofi1_Lcd_Port 001A            __end_ofi1_Lcd_Cmd 0DA7            __end_of_UART_Init 0DE1  
          __end_of_UART_Read 0400            __end_of_UART_Send 1000            i1Lcd_Write_Char@a 0074  
        __size_of_UART_Write 0016            i1Lcd_Write_Char@y 0073                       _noecho 0039  
                  ??_findKey 0062                       _strcmp 0E89                       _strcpy 0D58  
             ??_readKeyboard 0062                       saved_w 007E              Lcd_Set_Cursor@a 00EA  
            Lcd_Set_Cursor@b 0062              Lcd_Set_Cursor@y 00EC              Lcd_Set_Cursor@z 00EB  
    __end_of__initialization 0064            __end_of_Lcd_Clear 07FC                    ?_GSM_Init 0070  
                  ?_GSM_Send 007A                ?i1_UART_Write 0070               __pcstackCOMMON 0070  
               __pidataBANK0 0DFE                 __pidataBANK1 0CFD                 __pidataBANK2 0D40  
               __pidataBANK3 0E41               _Lcd_Set_Cursor 06C3                    ?_Lcd_Init 0070  
                  ?_Lcd_Port 0070                   __pbssBANK0 0041                   __pbssBANK1 00A0  
                 __pbssBANK3 0190                    GSM_Send@m 007A                    GSM_Send@n 007C  
   __size_of_UART_Data_Ready 0006                   ??_GSM_Init 00EC                   ??_GSM_Send 0054  
             ??i1_UART_Write 0070                   __pmaintext 0068         __size_ofi1_UART_Init 001D  
       __size_ofi1_UART_Send 003D                   __pintentry 0004    __size_of_Lcd_Write_String 0026  
     __end_of_Lcd_Set_Cursor 072D                      ?_strcmp 005E                      ?_strcpy 0070  
                    _T2CKPS0 0090                      _T2CKPS1 0091                 ??i1_Lcd_Port 0070  
               ??_UART_Write 005E                   ??_Lcd_Init 0062                   ??_Lcd_Port 005E  
                 __stringtab 0400               _Lcd_Write_Char 0F27                      _Lcd_Cmd 0DE1  
  __size_ofi1_Lcd_Set_Cursor 004A         __end_of_readKeyboard 0647         __size_ofi1_Lcd_Clear 000B  
         __end_ofi1_Lcd_Port 0D8C           __end_of_UART_Write 0D28              ?_Lcd_Set_Cursor 0062  
                    _findKey 0647                      __ptext1 0E89                      __ptext2 05A9  
                    __ptext3 0647                      __ptext4 0E63                      __ptext5 0F27  
                    __ptext6 06C3                      __ptext7 0790                      __ptext8 07F1  
                    __ptext9 0DE1              __size_of_strcmp 0027              __size_of_strcpy 001A  
               __size_of_ISR 016D   __end_ofi1_Lcd_Write_String 0E41                      clrloop0 0CC7  
     __end_of_Lcd_Write_Char 0F65         end_of_initialization 0064                    Lcd_Port@a 005E  
          ??_UART_Data_Ready 0070                      strcmp@r 0062                 i1UART_Send@i 0078  
  __size_ofi1_Lcd_Write_Char 003A                 i1UART_Send@s 0073                    i1_Lcd_Cmd 0D8C  
                  _UART_Init 0DC4                    _UART_Read 03FA                    _UART_Send 0FAF  
             UART_Write@data 0060         __end_ofi1_UART_Write 0CFD              ?_Lcd_Write_Char 0070  
          Lcd_Write_String@a 0065            Lcd_Write_String@i 0063                    _Lcd_Clear 07F1  
          __size_of_GSM_Init 0063            __size_of_GSM_Send 00C6                   ?i1_Lcd_Cmd 0070  
           _Lcd_Write_String 0E63                   ?_UART_Init 0070                   ?_UART_Read 0070  
                 ?_UART_Send 0061               __end_of_strcmp 0EB0               __end_of_strcpy 0D72  
        start_initialization 0015                  __end_of_ISR 03FA            __size_of_Lcd_Init 0061  
      __size_of_readKeyboard 009E            __size_of_Lcd_Port 0018             i1_Lcd_Set_Cursor 0F65  
                 ?_Lcd_Clear 0070                   init_fetch0 0CD9                  __pdataBANK0 0020  
                __pdataBANK1 00D5                  __pdataBANK2 0110                  __pdataBANK3 01B8  
            Lcd_Write_Char@a 0062              Lcd_Write_Char@y 0061                     ??_strcmp 0060  
                   ??_strcpy 0071                  __pbssCOMMON 007D                 _readKeyboard 05A9  
                  ___latbits 0002                __pcstackBANK0 0054                __pcstackBANK1 00EA  
              __pcstackBANK3 01DA         i1Lcd_Write_Char@temp 0072                     ?_Lcd_Cmd 0070  
                  _char_mode 01CB                ??i1_UART_Init 0070                ??i1_UART_Send 0075  
           ??_Lcd_Set_Cursor 0063             i1_Lcd_Write_Char 0EB0                  ??i1_Lcd_Cmd 0071  
       i1Lcd_Set_Cursor@temp 007A                  ??_UART_Init 005E                  ??_UART_Read 0070  
                ??_UART_Send 0063                    __pstrings 0400                     ?_findKey 005E  
      __size_ofi1_UART_Write 0013                   UART_Send@i 00EA                   UART_Send@s 0061  
                  _mode_text 00E0                    _mobile_no 0110            interrupt_function 0004  
              ??i1_Lcd_Clear 0074              _UART_Data_Ready 0CC0                    clear_ram0 0CC6  
                   _GSM_Init 072D                     _GSM_Send 04E3           i1_Lcd_Write_String 0E1F  
                   Lcd_Cmd@a 0061                     _GO_nDONE 00FA                 i1_UART_Write 0CEA  
                ??_Lcd_Clear 0062          ?i1_Lcd_Write_String 0070          __end_ofi1_UART_Init 0DC4  
        __end_ofi1_UART_Send 0F27                  __stringbase 040F             ??_Lcd_Write_Char 005F  
                   _Lcd_Init 0790                     _Lcd_Port 0D28         ??i1_Lcd_Write_String 0075  
   __end_of_Lcd_Write_String 0E89             i1UART_Write@data 0072                readKeyboard@i 00EA  
           __size_of_Lcd_Cmd 001D          __end_ofi1_Lcd_Clear 0CD9           __end_of__stringtab 0410  
   __end_ofi1_Lcd_Set_Cursor 0FAF             __size_of_findKey 007C            i1Lcd_Set_Cursor@a 0077  
          i1Lcd_Set_Cursor@b 0074            i1Lcd_Set_Cursor@y 0079            i1Lcd_Set_Cursor@z 0078  
                   __ptext10 0D28                     __ptext11 072D                     __ptext20 0D8C  
                   __ptext12 0FAF                     __ptext21 0D72                     __ptext13 0D12  
                   __ptext22 0D58                     __ptext14 0DC4                     __ptext23 03FA  
                   __ptext15 028D                     __ptext24 0CC0                     __ptext16 0E1F  
                   __ptext25 04E3                     __ptext17 0EB0                     __ptext26 0EEA  
                   __ptext18 0F65                     __ptext27 0CEA                     __ptext19 0CCE  
                   __ptext28 0DA7      __end_of_UART_Data_Ready 0CC6                   strcpy@from 0070  
              __size_of_main 0225                  i1Lcd_Port@a 0070                  i1_UART_Init 0DA7  
                i1_UART_Send 0EEA                     findKey@a 005E                     findKey@b 0060  
        i1Lcd_Write_String@a 0075          i1Lcd_Write_String@i 0076                     init_ram0 0CDD  
         Lcd_Write_Char@temp 0060                     intlevel1 0000     __end_ofi1_Lcd_Write_Char 0EEA  
                i1_Lcd_Clear 0CCE                   i1Lcd_Cmd@a 0073                    stringcode 040A  
         Lcd_Set_Cursor@temp 00ED                     strcmp@s1 0063                     strcmp@s2 005E  
                   strcpy@cp 0072                     strcpy@to 0073                   i1_Lcd_Port 0D72  
                   stringdir 040A                     stringtab 0400                   _UART_Write 0D12  
           ?_UART_Data_Ready 0070  
