

Microchip Technology PIC LITE Macro Assembler V1.45 build -152302408 
                                                                                               Tue Apr 10 00:06:16 2018

Microchip Technology Omniscient Code Generator v1.45 (Free mode) build 201711160504
     1                           	processor	16F877A
     2                           	opt	pw 120
     3                           	opt	lm
     4                           	psect	idataBANK0,global,class=CODE,delta=2
     5                           	psect	idataBANK1,global,class=CODE,delta=2
     6                           	psect	idataBANK2,global,class=CODE,delta=2
     7                           	psect	idataBANK3,global,class=CODE,delta=2
     8                           	psect	strings,global,class=STRING,delta=2
     9                           	psect	stringtext,global,reloc=256,class=STRCODE,delta=2
    10                           	psect	cinit,global,class=CODE,merge=1,delta=2
    11                           	psect	bssBANK0,global,class=BANK0,space=1,delta=1
    12                           	psect	dataBANK0,global,class=BANK0,space=1,delta=1
    13                           	psect	bssBANK1,global,class=BANK1,space=1,delta=1
    14                           	psect	dataBANK1,global,class=BANK1,space=1,delta=1
    15                           	psect	dataBANK3,global,class=BANK3,space=1,delta=1
    16                           	psect	bssBANK2,global,class=BANK2,space=1,delta=1
    17                           	psect	dataBANK2,global,class=BANK2,space=1,delta=1
    18                           	psect	inittext,global,class=CODE,delta=2
    19                           	psect	clrtext,global,class=CODE,delta=2
    20                           	psect	cstackCOMMON,global,class=COMMON,space=1,delta=1
    21                           	psect	cstackBANK0,global,class=BANK0,space=1,delta=1
    22                           	psect	maintext,global,class=CODE,split=1,delta=2
    23                           	psect	text1,local,class=CODE,merge=1,delta=2
    24                           	psect	text2,local,class=CODE,merge=1,delta=2
    25                           	psect	text3,local,class=CODE,merge=1,delta=2
    26                           	psect	text4,local,class=CODE,merge=1,delta=2
    27                           	psect	text5,local,class=CODE,merge=1,delta=2
    28                           	psect	text6,local,class=CODE,merge=1,delta=2
    29                           	psect	text7,local,class=CODE,merge=1,delta=2
    30                           	psect	text8,local,class=CODE,merge=1,delta=2
    31                           	psect	text9,local,class=CODE,merge=1,delta=2
    32                           	psect	text10,local,class=CODE,merge=1,delta=2
    33                           	psect	text11,local,class=CODE,merge=1,delta=2,group=2
    34                           	psect	text12,local,class=CODE,merge=1,delta=2
    35                           	psect	text13,local,class=CODE,merge=1,delta=2
    36                           	psect	text14,local,class=CODE,merge=1,delta=2
    37                           	psect	text15,local,class=CODE,merge=1,delta=2
    38                           	psect	text16,local,class=CODE,merge=1,delta=2
    39                           	psect	text17,local,class=CODE,merge=1,delta=2
    40                           	psect	text18,local,class=CODE,merge=1,delta=2
    41                           	psect	text19,local,class=CODE,merge=1,delta=2
    42                           	psect	text20,local,class=CODE,merge=1,delta=2
    43                           	dabs	1,0x7E,2
    44  0000                     
    45                           ; Version 1.45
    46                           ; Generated 16/11/2017 GMT
    47                           ; 
    48                           ; Copyright © 2017, Microchip Technology Inc. and its subsidiaries ("Microchip")
    49                           ; All rights reserved.
    50                           ; 
    51                           ; This software is developed by Microchip Technology Inc. and its subsidiaries ("Microch
      +                          ip").
    52                           ; 
    53                           ; Redistribution and use in source and binary forms, with or without modification, are
    54                           ; permitted provided that the following conditions are met:
    55                           ; 
    56                           ;     1. Redistributions of source code must retain the above copyright notice, this lis
      +                          t of
    57                           ;        conditions and the following disclaimer.
    58                           ; 
    59                           ;     2. Redistributions in binary form must reproduce the above copyright notice, this 
      +                          list
    60                           ;        of conditions and the following disclaimer in the documentation and/or other
    61                           ;        materials provided with the distribution.
    62                           ; 
    63                           ;     3. Microchip's name may not be used to endorse or promote products derived from th
      +                          is
    64                           ;        software without specific prior written permission.
    65                           ; 
    66                           ; THIS SOFTWARE IS PROVIDED BY MICROCHIP "AS IS" AND ANY EXPRESS OR IMPLIED WARRANTIES,
    67                           ; INCLUDING, BUT NOT LIMITED TO, THE IMPLIED WARRANTIES OF MERCHANTABILITY AND FITNESS F
      +                          OR
    68                           ; PURPOSE ARE DISCLAIMED.  IN NO EVENT SHALL MICROCHIP BE LIABLE FOR ANY DIRECT, INDIREC
      +                          T,
    69                           ; INCIDENTAL, SPECIAL, EXEMPLARY, OR CONSEQUENTIAL DAMAGES (INCLUDING BUT NOT LIMITED TO
    70                           ; PROCUREMENT OF SUBSTITUTE GOODS OR SERVICES; LOSS OF USE, DATA OR PROFITS; OR BUSINESS
    71                           ; INTERRUPTION) HOWSOEVER CAUSED AND ON ANY THEORY OF LIABILITY, WHETHER IN CONTRACT, ST
      +                          RICT
    72                           ; LIABILITY, OR TORT (INCLUDING NEGLIGENCE OR OTHERWISE) ARISING IN ANY WAY OUT OF THE U
      +                          SE OF
    73                           ; THIS SOFTWARE, EVEN IF ADVISED OF THE POSSIBILITY OF SUCH DAMAGE.
    74                           ; 
    75                           ; 
    76                           ; Code-generator required, PIC16F877A Definitions
    77                           ; 
    78                           ; SFR Addresses
    79  0000                     	;# 
    80  0001                     	;# 
    81  0002                     	;# 
    82  0003                     	;# 
    83  0004                     	;# 
    84  0005                     	;# 
    85  0006                     	;# 
    86  0007                     	;# 
    87  0008                     	;# 
    88  0009                     	;# 
    89  000A                     	;# 
    90  000B                     	;# 
    91  000C                     	;# 
    92  000D                     	;# 
    93  000E                     	;# 
    94  000E                     	;# 
    95  000F                     	;# 
    96  0010                     	;# 
    97  0011                     	;# 
    98  0012                     	;# 
    99  0013                     	;# 
   100  0014                     	;# 
   101  0015                     	;# 
   102  0015                     	;# 
   103  0016                     	;# 
   104  0017                     	;# 
   105  0018                     	;# 
   106  0019                     	;# 
   107  001A                     	;# 
   108  001B                     	;# 
   109  001B                     	;# 
   110  001C                     	;# 
   111  001D                     	;# 
   112  001E                     	;# 
   113  001F                     	;# 
   114  0081                     	;# 
   115  0085                     	;# 
   116  0086                     	;# 
   117  0087                     	;# 
   118  0088                     	;# 
   119  0089                     	;# 
   120  008C                     	;# 
   121  008D                     	;# 
   122  008E                     	;# 
   123  0091                     	;# 
   124  0092                     	;# 
   125  0093                     	;# 
   126  0094                     	;# 
   127  0098                     	;# 
   128  0099                     	;# 
   129  009C                     	;# 
   130  009D                     	;# 
   131  009E                     	;# 
   132  009F                     	;# 
   133  010C                     	;# 
   134  010D                     	;# 
   135  010E                     	;# 
   136  010F                     	;# 
   137  018C                     	;# 
   138  018D                     	;# 
   139  0000                     	;# 
   140  0001                     	;# 
   141  0002                     	;# 
   142  0003                     	;# 
   143  0004                     	;# 
   144  0005                     	;# 
   145  0006                     	;# 
   146  0007                     	;# 
   147  0008                     	;# 
   148  0009                     	;# 
   149  000A                     	;# 
   150  000B                     	;# 
   151  000C                     	;# 
   152  000D                     	;# 
   153  000E                     	;# 
   154  000E                     	;# 
   155  000F                     	;# 
   156  0010                     	;# 
   157  0011                     	;# 
   158  0012                     	;# 
   159  0013                     	;# 
   160  0014                     	;# 
   161  0015                     	;# 
   162  0015                     	;# 
   163  0016                     	;# 
   164  0017                     	;# 
   165  0018                     	;# 
   166  0019                     	;# 
   167  001A                     	;# 
   168  001B                     	;# 
   169  001B                     	;# 
   170  001C                     	;# 
   171  001D                     	;# 
   172  001E                     	;# 
   173  001F                     	;# 
   174  0081                     	;# 
   175  0085                     	;# 
   176  0086                     	;# 
   177  0087                     	;# 
   178  0088                     	;# 
   179  0089                     	;# 
   180  008C                     	;# 
   181  008D                     	;# 
   182  008E                     	;# 
   183  0091                     	;# 
   184  0092                     	;# 
   185  0093                     	;# 
   186  0094                     	;# 
   187  0098                     	;# 
   188  0099                     	;# 
   189  009C                     	;# 
   190  009D                     	;# 
   191  009E                     	;# 
   192  009F                     	;# 
   193  010C                     	;# 
   194  010D                     	;# 
   195  010E                     	;# 
   196  010F                     	;# 
   197  018C                     	;# 
   198  018D                     	;# 
   199                           
   200                           	psect	idataBANK0
   201  000F                     __pidataBANK0:	
   202                           
   203                           ;initializer for _mode_text
   204  000F  3441               	retlw	65
   205  0010  3454               	retlw	84
   206  0011  342B               	retlw	43
   207  0012  3443               	retlw	67
   208  0013  344D               	retlw	77
   209  0014  3447               	retlw	71
   210  0015  3446               	retlw	70
   211  0016  343D               	retlw	61
   212  0017  3431               	retlw	49
   213  0018  3400               	retlw	0
   214                           
   215                           ;initializer for _noecho
   216  0019  3441               	retlw	65
   217  001A  3454               	retlw	84
   218  001B  3445               	retlw	69
   219  001C  3430               	retlw	48
   220  001D  3400               	retlw	0
   221                           
   222                           ;initializer for GPRS1_Check_OK@F1362
   223  001E  344F               	retlw	79
   224  001F  344B               	retlw	75
   225  0020  3400               	retlw	0
   226                           
   227                           ;initializer for GPRS1_Init@F1338
   228  0021  344F               	retlw	79
   229  0022  344B               	retlw	75
   230  0023  3400               	retlw	0
   231                           
   232                           ;initializer for _gr
   233  0024  3435               	retlw	53
   234  0025  3435               	retlw	53
   235  0026  3400               	retlw	0
   236                           
   237                           ;initializer for _gprs_value5_ip
   238  0027  3441               	retlw	65
   239  0028  3454               	retlw	84
   240  0029  342B               	retlw	43
   241  002A  3453               	retlw	83
   242  002B  3441               	retlw	65
   243  002C  3450               	retlw	80
   244  002D  3442               	retlw	66
   245  002E  3452               	retlw	82
   246  002F  343D               	retlw	61
   247  0030  3432               	retlw	50
   248  0031  342C               	retlw	44
   249  0032  3431               	retlw	49
   250  0033  3400               	retlw	0
   251                           
   252                           ;initializer for _b1
   253  0034  3452               	retlw	82
   254  0035  3441               	retlw	65
   255  0036  3447               	retlw	71
   256  0037  3455               	retlw	85
   257  0038  3400               	retlw	0
   258                           
   259                           ;initializer for _AT
   260  0039  3441               	retlw	65
   261  003A  3454               	retlw	84
   262  003B  3400               	retlw	0
   263                           
   264                           	psect	idataBANK1
   265  003C                     __pidataBANK1:	
   266                           
   267                           ;initializer for _c1
   268  003C  3430               	retlw	48
   269  003D  3430               	retlw	48
   270  003E  3430               	retlw	48
   271  003F  3430               	retlw	48
   272  0040  3431               	retlw	49
   273  0041  3435               	retlw	53
   274  0042  3433               	retlw	51
   275  0043  3431               	retlw	49
   276  0044  3434               	retlw	52
   277  0045  3435               	retlw	53
   278  0046  3439               	retlw	57
   279  0047  3400               	retlw	0
   280                           
   281                           ;initializer for _gprs_value4
   282  0048  3441               	retlw	65
   283  0049  3454               	retlw	84
   284  004A  342B               	retlw	43
   285  004B  3453               	retlw	83
   286  004C  3441               	retlw	65
   287  004D  3450               	retlw	80
   288  004E  3442               	retlw	66
   289  004F  3452               	retlw	82
   290  0050  343D               	retlw	61
   291  0051  3431               	retlw	49
   292  0052  342C               	retlw	44
   293  0053  3431               	retlw	49
   294  0054  3400               	retlw	0
   295                           
   296                           ;initializer for _a1
   297  0055  3430               	retlw	48
   298  0056  3430               	retlw	48
   299  0057  3430               	retlw	48
   300  0058  3430               	retlw	48
   301  0059  3431               	retlw	49
   302  005A  3435               	retlw	53
   303  005B  3433               	retlw	51
   304  005C  3431               	retlw	49
   305  005D  3434               	retlw	52
   306  005E  3435               	retlw	53
   307  005F  3439               	retlw	57
   308  0060  3400               	retlw	0
   309                           
   310                           ;initializer for _gprs_web6
   311  0061  3441               	retlw	65
   312  0062  3454               	retlw	84
   313  0063  342B               	retlw	43
   314  0064  3448               	retlw	72
   315  0065  3454               	retlw	84
   316  0066  3454               	retlw	84
   317  0067  3450               	retlw	80
   318  0068  3452               	retlw	82
   319  0069  3445               	retlw	69
   320  006A  3441               	retlw	65
   321  006B  3444               	retlw	68
   322  006C  3400               	retlw	0
   323                           
   324                           ;initializer for _gprs_web1
   325  006D  3441               	retlw	65
   326  006E  3454               	retlw	84
   327  006F  342B               	retlw	43
   328  0070  3448               	retlw	72
   329  0071  3454               	retlw	84
   330  0072  3454               	retlw	84
   331  0073  3450               	retlw	80
   332  0074  3449               	retlw	73
   333  0075  344E               	retlw	78
   334  0076  3449               	retlw	73
   335  0077  3454               	retlw	84
   336  0078  3400               	retlw	0
   337                           
   338                           	psect	idataBANK2
   339  0F5C                     __pidataBANK2:	
   340                           
   341                           ;initializer for _a4
   342  0F5C  3430               	retlw	48
   343  0F5D  3430               	retlw	48
   344  0F5E  3430               	retlw	48
   345  0F5F  3430               	retlw	48
   346  0F60  3431               	retlw	49
   347  0F61  3434               	retlw	52
   348  0F62  3439               	retlw	57
   349  0F63  3435               	retlw	53
   350  0F64  3436               	retlw	54
   351  0F65  3438               	retlw	56
   352  0F66  3432               	retlw	50
   353  0F67  3400               	retlw	0
   354                           
   355                           ;initializer for _gprs_location
   356  0F68  3441               	retlw	65
   357  0F69  3454               	retlw	84
   358  0F6A  342B               	retlw	43
   359  0F6B  3443               	retlw	67
   360  0F6C  3449               	retlw	73
   361  0F6D  3450               	retlw	80
   362  0F6E  3447               	retlw	71
   363  0F6F  3453               	retlw	83
   364  0F70  344D               	retlw	77
   365  0F71  344C               	retlw	76
   366  0F72  344F               	retlw	79
   367  0F73  3443               	retlw	67
   368  0F74  343D               	retlw	61
   369  0F75  3431               	retlw	49
   370  0F76  342C               	retlw	44
   371  0F77  3431               	retlw	49
   372  0F78  3400               	retlw	0
   373                           
   374                           ;initializer for _gprs_web5
   375  0F79  3441               	retlw	65
   376  0F7A  3454               	retlw	84
   377  0F7B  342B               	retlw	43
   378  0F7C  3448               	retlw	72
   379  0F7D  3454               	retlw	84
   380  0F7E  3454               	retlw	84
   381  0F7F  3450               	retlw	80
   382  0F80  3441               	retlw	65
   383  0F81  3443               	retlw	67
   384  0F82  3454               	retlw	84
   385  0F83  3449               	retlw	73
   386  0F84  344F               	retlw	79
   387  0F85  344E               	retlw	78
   388  0F86  343D               	retlw	61
   389  0F87  3430               	retlw	48
   390  0F88  3400               	retlw	0
   391                           
   392                           	psect	idataBANK3
   393  01A3                     __pidataBANK3:	
   394                           
   395                           ;initializer for _a3
   396  01A3  3430               	retlw	48
   397  01A4  3430               	retlw	48
   398  01A5  3430               	retlw	48
   399  01A6  3430               	retlw	48
   400  01A7  3431               	retlw	49
   401  01A8  3435               	retlw	53
   402  01A9  3430               	retlw	48
   403  01AA  3432               	retlw	50
   404  01AB  3431               	retlw	49
   405  01AC  3439               	retlw	57
   406  01AD  3432               	retlw	50
   407  01AE  3400               	retlw	0
   408                           
   409                           ;initializer for _a2
   410  01AF  3430               	retlw	48
   411  01B0  3430               	retlw	48
   412  01B1  3430               	retlw	48
   413  01B2  3431               	retlw	49
   414  01B3  3433               	retlw	51
   415  01B4  3439               	retlw	57
   416  01B5  3434               	retlw	52
   417  01B6  3437               	retlw	55
   418  01B7  3430               	retlw	48
   419  01B8  3435               	retlw	53
   420  01B9  3436               	retlw	54
   421  01BA  3400               	retlw	0
   422                           
   423                           ;initializer for _b4
   424  01BB  3430               	retlw	48
   425  01BC  3430               	retlw	48
   426  01BD  3430               	retlw	48
   427  01BE  3430               	retlw	48
   428  01BF  3431               	retlw	49
   429  01C0  3434               	retlw	52
   430  01C1  3439               	retlw	57
   431  01C2  3435               	retlw	53
   432  01C3  3436               	retlw	54
   433  01C4  3438               	retlw	56
   434  01C5  3432               	retlw	50
   435  01C6  3400               	retlw	0
   436                           
   437                           ;initializer for _b3
   438  01C7  3430               	retlw	48
   439  01C8  3430               	retlw	48
   440  01C9  3430               	retlw	48
   441  01CA  3430               	retlw	48
   442  01CB  3431               	retlw	49
   443  01CC  3435               	retlw	53
   444  01CD  3430               	retlw	48
   445  01CE  3432               	retlw	50
   446  01CF  3431               	retlw	49
   447  01D0  3439               	retlw	57
   448  01D1  3432               	retlw	50
   449  01D2  3400               	retlw	0
   450                           
   451                           ;initializer for _b2
   452  01D3  3430               	retlw	48
   453  01D4  3430               	retlw	48
   454  01D5  3430               	retlw	48
   455  01D6  3431               	retlw	49
   456  01D7  3433               	retlw	51
   457  01D8  3439               	retlw	57
   458  01D9  3434               	retlw	52
   459  01DA  3437               	retlw	55
   460  01DB  3430               	retlw	48
   461  01DC  3435               	retlw	53
   462  01DD  3436               	retlw	54
   463  01DE  3400               	retlw	0
   464                           
   465                           ;initializer for _c4
   466  01DF  3430               	retlw	48
   467  01E0  3430               	retlw	48
   468  01E1  3430               	retlw	48
   469  01E2  3430               	retlw	48
   470  01E3  3431               	retlw	49
   471  01E4  3434               	retlw	52
   472  01E5  3439               	retlw	57
   473  01E6  3435               	retlw	53
   474  01E7  3436               	retlw	54
   475  01E8  3438               	retlw	56
   476  01E9  3432               	retlw	50
   477  01EA  3400               	retlw	0
   478                           
   479                           ;initializer for _c3
   480  01EB  3430               	retlw	48
   481  01EC  3430               	retlw	48
   482  01ED  3430               	retlw	48
   483  01EE  3430               	retlw	48
   484  01EF  3431               	retlw	49
   485  01F0  3435               	retlw	53
   486  01F1  3430               	retlw	48
   487  01F2  3432               	retlw	50
   488  01F3  3431               	retlw	49
   489  01F4  3439               	retlw	57
   490  01F5  3432               	retlw	50
   491  01F6  3400               	retlw	0
   492                           
   493                           ;initializer for _c2
   494  01F7  3430               	retlw	48
   495  01F8  3430               	retlw	48
   496  01F9  3430               	retlw	48
   497  01FA  3431               	retlw	49
   498  01FB  3433               	retlw	51
   499  01FC  3439               	retlw	57
   500  01FD  3434               	retlw	52
   501  01FE  3437               	retlw	55
   502  01FF  3430               	retlw	48
   503  0200  3435               	retlw	53
   504  0201  3436               	retlw	54
   505  0202  3400               	retlw	0
   506  0008                     _PORTD	set	8
   507  001A                     _RCREG	set	26
   508  0019                     _TXREG	set	25
   509  0018                     _RCSTA	set	24
   510  0033                     _RB3	set	51
   511  0031                     _RB1	set	49
   512  0034                     _RB4	set	52
   513  0032                     _RB2	set	50
   514  00C1                     _OERR	set	193
   515  0065                     _RCIF	set	101
   516  00C6                     _RX9	set	198
   517  00C4                     _CREN	set	196
   518  00C7                     _SPEN	set	199
   519  0040                     _RD0	set	64
   520  0042                     _RD2	set	66
   521  0041                     _RD1	set	65
   522  0047                     _RD7	set	71
   523  0046                     _RD6	set	70
   524  0045                     _RD5	set	69
   525  0044                     _RD4	set	68
   526  0088                     _TRISD	set	136
   527  0099                     _SPBRG	set	153
   528  0098                     _TXSTA	set	152
   529  0434                     _TRISB4	set	1076
   530  0433                     _TRISB3	set	1075
   531  0432                     _TRISB2	set	1074
   532  0431                     _TRISB1	set	1073
   533  04C1                     _TRMT	set	1217
   534  04C6                     _TX9	set	1222
   535  04C4                     _SYNC	set	1220
   536  04C5                     _TXEN	set	1221
   537  04C2                     _BRGH	set	1218
   538  043E                     _TRISC6	set	1086
   539  043F                     _TRISC7	set	1087
   540                           
   541                           	psect	strings
   542  0968                     __pstrings:	
   543  0968                     stringtab:	
   544  0968                     __stringtab:	
   545                           
   546                           ;	String table - string pointers are 2 bytes each
   547  0968  1BFF               	btfsc	btemp+1,7
   548  0969  2972               	ljmp	stringcode
   549  096A  1383               	bcf	3,7
   550  096B  187F               	btfsc	btemp+1,0
   551  096C  1783               	bsf	3,7
   552  096D  0800               	movf	0,w
   553  096E  0A84               	incf	4,f
   554  096F  1903               	skipnz
   555  0970  0AFF               	incf	btemp+1,f
   556  0971  0008               	return
   557  0972                     stringcode:	
   558  0972  087F               	movf	btemp+1,w
   559  0973  397F               	andlw	127
   560  0974  008A               	movwf	10
   561  0975  0804               	movf	4,w
   562  0976  0A84               	incf	4,f
   563  0977  1903               	skipnz
   564  0978  0AFF               	incf	btemp+1,f
   565  0979  0082               	movwf	2
   566  097A                     __stringbase:	
   567  097A                     __end_of__stringtab:	
   568                           
   569                           	psect	stringtext
   570  0800                     __pstringtext:	
   571  0800                     STR_10:	
   572  0800  3441               	retlw	65	;'A'
   573  0801  3454               	retlw	84	;'T'
   574  0802  342B               	retlw	43	;'+'
   575  0803  3448               	retlw	72	;'H'
   576  0804  3454               	retlw	84	;'T'
   577  0805  3454               	retlw	84	;'T'
   578  0806  3450               	retlw	80	;'P'
   579  0807  3450               	retlw	80	;'P'
   580  0808  3441               	retlw	65	;'A'
   581  0809  3452               	retlw	82	;'R'
   582  080A  3441               	retlw	65	;'A'
   583  080B  343D               	retlw	61	;'='
   584  080C  3422               	retlw	34	;'"'
   585  080D  3455               	retlw	85	;'U'
   586  080E  3452               	retlw	82	;'R'
   587  080F  344C               	retlw	76	;'L'
   588  0810  3422               	retlw	34	;'"'
   589  0811  342C               	retlw	44	;','
   590  0812  3422               	retlw	34	;'"'
   591  0813  3468               	retlw	104	;'h'
   592  0814  3474               	retlw	116	;'t'
   593  0815  3474               	retlw	116	;'t'
   594  0816  3470               	retlw	112	;'p'
   595  0817  343A               	retlw	58	;':'
   596  0818  342F               	retlw	47	;'/'
   597  0819  342F               	retlw	47	;'/'
   598  081A  346C               	retlw	108	;'l'
   599  081B  346F               	retlw	111	;'o'
   600  081C  3461               	retlw	97	;'a'
   601  081D  3464               	retlw	100	;'d'
   602  081E  3473               	retlw	115	;'s'
   603  081F  3468               	retlw	104	;'h'
   604  0820  3465               	retlw	101	;'e'
   605  0821  3464               	retlw	100	;'d'
   606  0822  3464               	retlw	100	;'d'
   607  0823  3469               	retlw	105	;'i'
   608  0824  346E               	retlw	110	;'n'
   609  0825  3467               	retlw	103	;'g'
   610  0826  342D               	retlw	45	;'-'
   611  0827  3430               	retlw	48	;'0'
   612  0828  3430               	retlw	48	;'0'
   613  0829  3431               	retlw	49	;'1'
   614  082A  342D               	retlw	45	;'-'
   615  082B  3473               	retlw	115	;'s'
   616  082C  3469               	retlw	105	;'i'
   617  082D  3474               	retlw	116	;'t'
   618  082E  3465               	retlw	101	;'e'
   619  082F  3431               	retlw	49	;'1'
   620  0830  342E               	retlw	46	;'.'
   621  0831  3431               	retlw	49	;'1'
   622  0832  3474               	retlw	116	;'t'
   623  0833  3465               	retlw	101	;'e'
   624  0834  346D               	retlw	109	;'m'
   625  0835  3470               	retlw	112	;'p'
   626  0836  3475               	retlw	117	;'u'
   627  0837  3472               	retlw	114	;'r'
   628  0838  346C               	retlw	108	;'l'
   629  0839  342E               	retlw	46	;'.'
   630  083A  3463               	retlw	99	;'c'
   631  083B  346F               	retlw	111	;'o'
   632  083C  346D               	retlw	109	;'m'
   633  083D  342F               	retlw	47	;'/'
   634  083E  3474               	retlw	116	;'t'
   635  083F  3476               	retlw	118	;'v'
   636  0840  346D               	retlw	109	;'m'
   637  0841  3431               	retlw	49	;'1'
   638  0842  342E               	retlw	46	;'.'
   639  0843  3470               	retlw	112	;'p'
   640  0844  3468               	retlw	104	;'h'
   641  0845  3470               	retlw	112	;'p'
   642  0846  343F               	retlw	63	;'?'
   643  0847  3476               	retlw	118	;'v'
   644  0848  3461               	retlw	97	;'a'
   645  0849  346C               	retlw	108	;'l'
   646  084A  3475               	retlw	117	;'u'
   647  084B  3465               	retlw	101	;'e'
   648  084C  3431               	retlw	49	;'1'
   649  084D  343D               	retlw	61	;'='
   650  084E  3435               	retlw	53	;'5'
   651  084F  3438               	retlw	56	;'8'
   652  0850  3437               	retlw	55	;'7'
   653  0851  3426               	retlw	38	;'&'
   654  0852  3476               	retlw	118	;'v'
   655  0853  3461               	retlw	97	;'a'
   656  0854  346C               	retlw	108	;'l'
   657  0855  3475               	retlw	117	;'u'
   658  0856  3465               	retlw	101	;'e'
   659  0857  3432               	retlw	50	;'2'
   660  0858  343D               	retlw	61	;'='
   661  0859  3400               	retlw	0
   662  085A                     STR_5:	
   663  085A  3441               	retlw	65	;'A'
   664  085B  3454               	retlw	84	;'T'
   665  085C  342B               	retlw	43	;'+'
   666  085D  3453               	retlw	83	;'S'
   667  085E  3441               	retlw	65	;'A'
   668  085F  3450               	retlw	80	;'P'
   669  0860  3442               	retlw	66	;'B'
   670  0861  3452               	retlw	82	;'R'
   671  0862  343D               	retlw	61	;'='
   672  0863  3433               	retlw	51	;'3'
   673  0864  342C               	retlw	44	;','
   674  0865  3431               	retlw	49	;'1'
   675  0866  342C               	retlw	44	;','
   676  0867  3422               	retlw	34	;'"'
   677  0868  3441               	retlw	65	;'A'
   678  0869  3450               	retlw	80	;'P'
   679  086A  344E               	retlw	78	;'N'
   680  086B  3422               	retlw	34	;'"'
   681  086C  342C               	retlw	44	;','
   682  086D  3422               	retlw	34	;'"'
   683  086E  3461               	retlw	97	;'a'
   684  086F  3469               	retlw	105	;'i'
   685  0870  3472               	retlw	114	;'r'
   686  0871  3474               	retlw	116	;'t'
   687  0872  3465               	retlw	101	;'e'
   688  0873  346C               	retlw	108	;'l'
   689  0874  3467               	retlw	103	;'g'
   690  0875  3470               	retlw	112	;'p'
   691  0876  3472               	retlw	114	;'r'
   692  0877  3473               	retlw	115	;'s'
   693  0878  342E               	retlw	46	;'.'
   694  0879  3463               	retlw	99	;'c'
   695  087A  346F               	retlw	111	;'o'
   696  087B  346D               	retlw	109	;'m'
   697  087C  3422               	retlw	34	;'"'
   698  087D  3400               	retlw	0
   699  087E                     STR_3:	
   700  087E  3441               	retlw	65	;'A'
   701  087F  3454               	retlw	84	;'T'
   702  0880  342B               	retlw	43	;'+'
   703  0881  3453               	retlw	83	;'S'
   704  0882  3441               	retlw	65	;'A'
   705  0883  3450               	retlw	80	;'P'
   706  0884  3442               	retlw	66	;'B'
   707  0885  3452               	retlw	82	;'R'
   708  0886  343D               	retlw	61	;'='
   709  0887  3433               	retlw	51	;'3'
   710  0888  342C               	retlw	44	;','
   711  0889  3431               	retlw	49	;'1'
   712  088A  342C               	retlw	44	;','
   713  088B  3422               	retlw	34	;'"'
   714  088C  3443               	retlw	67	;'C'
   715  088D  346F               	retlw	111	;'o'
   716  088E  346E               	retlw	110	;'n'
   717  088F  3474               	retlw	116	;'t'
   718  0890  3479               	retlw	121	;'y'
   719  0891  3470               	retlw	112	;'p'
   720  0892  3465               	retlw	101	;'e'
   721  0893  3422               	retlw	34	;'"'
   722  0894  342C               	retlw	44	;','
   723  0895  3422               	retlw	34	;'"'
   724  0896  3447               	retlw	71	;'G'
   725  0897  3450               	retlw	80	;'P'
   726  0898  3452               	retlw	82	;'R'
   727  0899  3453               	retlw	83	;'S'
   728  089A  3422               	retlw	34	;'"'
   729  089B  3400               	retlw	0
   730  089C                     STR_4:	
   731  089C  3441               	retlw	65	;'A'
   732  089D  3454               	retlw	84	;'T'
   733  089E  342B               	retlw	43	;'+'
   734  089F  3453               	retlw	83	;'S'
   735  08A0  3441               	retlw	65	;'A'
   736  08A1  3450               	retlw	80	;'P'
   737  08A2  3442               	retlw	66	;'B'
   738  08A3  3452               	retlw	82	;'R'
   739  08A4  343D               	retlw	61	;'='
   740  08A5  3433               	retlw	51	;'3'
   741  08A6  342C               	retlw	44	;','
   742  08A7  3431               	retlw	49	;'1'
   743  08A8  342C               	retlw	44	;','
   744  08A9  3422               	retlw	34	;'"'
   745  08AA  3441               	retlw	65	;'A'
   746  08AB  3450               	retlw	80	;'P'
   747  08AC  344E               	retlw	78	;'N'
   748  08AD  3422               	retlw	34	;'"'
   749  08AE  342C               	retlw	44	;','
   750  08AF  3422               	retlw	34	;'"'
   751  08B0  3443               	retlw	67	;'C'
   752  08B1  344D               	retlw	77	;'M'
   753  08B2  344E               	retlw	78	;'N'
   754  08B3  3445               	retlw	69	;'E'
   755  08B4  3454               	retlw	84	;'T'
   756  08B5  3422               	retlw	34	;'"'
   757  08B6  3400               	retlw	0
   758  08B7                     STR_9:	
   759  08B7  3441               	retlw	65	;'A'
   760  08B8  3454               	retlw	84	;'T'
   761  08B9  342B               	retlw	43	;'+'
   762  08BA  3448               	retlw	72	;'H'
   763  08BB  3454               	retlw	84	;'T'
   764  08BC  3454               	retlw	84	;'T'
   765  08BD  3450               	retlw	80	;'P'
   766  08BE  3450               	retlw	80	;'P'
   767  08BF  3441               	retlw	65	;'A'
   768  08C0  3452               	retlw	82	;'R'
   769  08C1  3441               	retlw	65	;'A'
   770  08C2  343D               	retlw	61	;'='
   771  08C3  3422               	retlw	34	;'"'
   772  08C4  3443               	retlw	67	;'C'
   773  08C5  3449               	retlw	73	;'I'
   774  08C6  3444               	retlw	68	;'D'
   775  08C7  3422               	retlw	34	;'"'
   776  08C8  342C               	retlw	44	;','
   777  08C9  3431               	retlw	49	;'1'
   778  08CA  3400               	retlw	0
   779  08CB                     STR_1:	
   780  08CB  3447               	retlw	71	;'G'
   781  08CC  3450               	retlw	80	;'P'
   782  08CD  3452               	retlw	82	;'R'
   783  08CE  3453               	retlw	83	;'S'
   784  08CF  3420               	retlw	32	;' '
   785  08D0  3463               	retlw	99	;'c'
   786  08D1  346F               	retlw	111	;'o'
   787  08D2  346E               	retlw	110	;'n'
   788  08D3  3466               	retlw	102	;'f'
   789  08D4  3469               	retlw	105	;'i'
   790  08D5  3467               	retlw	103	;'g'
   791  08D6  3475               	retlw	117	;'u'
   792  08D7  3472               	retlw	114	;'r'
   793  08D8  3469               	retlw	105	;'i'
   794  08D9  346E               	retlw	110	;'n'
   795  08DA  3467               	retlw	103	;'g'
   796  08DB  3400               	retlw	0
   797  08DC                     STR_7:	
   798  08DC  3453               	retlw	83	;'S'
   799  08DD  3475               	retlw	117	;'u'
   800  08DE  3463               	retlw	99	;'c'
   801  08DF  3463               	retlw	99	;'c'
   802  08E0  3465               	retlw	101	;'e'
   803  08E1  3473               	retlw	115	;'s'
   804  08E2  3473               	retlw	115	;'s'
   805  08E3  3466               	retlw	102	;'f'
   806  08E4  3475               	retlw	117	;'u'
   807  08E5  346C               	retlw	108	;'l'
   808  08E6  346C               	retlw	108	;'l'
   809  08E7  3479               	retlw	121	;'y'
   810  08E8  342E               	retlw	46	;'.'
   811  08E9  342E               	retlw	46	;'.'
   812  08EA  342E               	retlw	46	;'.'
   813  08EB  3400               	retlw	0
   814  08EC                     STR_6:	
   815  08EC  3447               	retlw	71	;'G'
   816  08ED  3450               	retlw	80	;'P'
   817  08EE  3452               	retlw	82	;'R'
   818  08EF  3453               	retlw	83	;'S'
   819  08F0  3420               	retlw	32	;' '
   820  08F1  3463               	retlw	99	;'c'
   821  08F2  346F               	retlw	111	;'o'
   822  08F3  346E               	retlw	110	;'n'
   823  08F4  3466               	retlw	102	;'f'
   824  08F5  3469               	retlw	105	;'i'
   825  08F6  3467               	retlw	103	;'g'
   826  08F7  3475               	retlw	117	;'u'
   827  08F8  3472               	retlw	114	;'r'
   828  08F9  3465               	retlw	101	;'e'
   829  08FA  3464               	retlw	100	;'d'
   830  08FB  3400               	retlw	0
   831  08FC                     STR_2:	
   832  08FC  3450               	retlw	80	;'P'
   833  08FD  346C               	retlw	108	;'l'
   834  08FE  3465               	retlw	101	;'e'
   835  08FF  3461               	retlw	97	;'a'
   836  0900  3473               	retlw	115	;'s'
   837  0901  3465               	retlw	101	;'e'
   838  0902  3420               	retlw	32	;' '
   839  0903  3477               	retlw	119	;'w'
   840  0904  3461               	retlw	97	;'a'
   841  0905  3469               	retlw	105	;'i'
   842  0906  3474               	retlw	116	;'t'
   843  0907  342E               	retlw	46	;'.'
   844  0908  342E               	retlw	46	;'.'
   845  0909  342E               	retlw	46	;'.'
   846  090A  3400               	retlw	0
   847  090B                     STR_18:	
   848  090B  3453               	retlw	83	;'S'
   849  090C  3454               	retlw	84	;'T'
   850  090D  3441               	retlw	65	;'A'
   851  090E  3446               	retlw	70	;'F'
   852  090F  3446               	retlw	70	;'F'
   853  0910  343A               	retlw	58	;':'
   854  0911  3420               	retlw	32	;' '
   855  0912  3453               	retlw	83	;'S'
   856  0913  3449               	retlw	73	;'I'
   857  0914  3456               	retlw	86	;'V'
   858  0915  3441               	retlw	65	;'A'
   859  0916  3400               	retlw	0
   860  0917                     STR_17:	
   861  0917  3453               	retlw	83	;'S'
   862  0918  3454               	retlw	84	;'T'
   863  0919  3441               	retlw	65	;'A'
   864  091A  3446               	retlw	70	;'F'
   865  091B  3446               	retlw	70	;'F'
   866  091C  343A               	retlw	58	;':'
   867  091D  3420               	retlw	32	;' '
   868  091E  3452               	retlw	82	;'R'
   869  091F  3441               	retlw	65	;'A'
   870  0920  3447               	retlw	71	;'G'
   871  0921  3455               	retlw	85	;'U'
   872  0922  3400               	retlw	0
   873  0923                     STR_20:	
   874  0923  3453               	retlw	83	;'S'
   875  0924  3454               	retlw	84	;'T'
   876  0925  3441               	retlw	65	;'A'
   877  0926  3446               	retlw	70	;'F'
   878  0927  3446               	retlw	70	;'F'
   879  0928  343A               	retlw	58	;':'
   880  0929  3420               	retlw	32	;' '
   881  092A  344B               	retlw	75	;'K'
   882  092B  3441               	retlw	65	;'A'
   883  092C  3452               	retlw	82	;'R'
   884  092D  3455               	retlw	85	;'U'
   885  092E  3400               	retlw	0
   886  092F                     STR_16:	
   887  092F  3457               	retlw	87	;'W'
   888  0930  3461               	retlw	97	;'a'
   889  0931  3469               	retlw	105	;'i'
   890  0932  3474               	retlw	116	;'t'
   891  0933  3469               	retlw	105	;'i'
   892  0934  346E               	retlw	110	;'n'
   893  0935  3467               	retlw	103	;'g'
   894  0936  342E               	retlw	46	;'.'
   895  0937  342E               	retlw	46	;'.'
   896  0938  342E               	retlw	46	;'.'
   897  0939  3400               	retlw	0
   898  093A                     STR_19:	
   899  093A  3453               	retlw	83	;'S'
   900  093B  3454               	retlw	84	;'T'
   901  093C  3441               	retlw	65	;'A'
   902  093D  3446               	retlw	70	;'F'
   903  093E  3446               	retlw	70	;'F'
   904  093F  343A               	retlw	58	;':'
   905  0940  3420               	retlw	32	;' '
   906  0941  3452               	retlw	82	;'R'
   907  0942  3441               	retlw	65	;'A'
   908  0943  344A               	retlw	74	;'J'
   909  0944  3400               	retlw	0
   910  0945                     STR_15:	
   911  0945  3420               	retlw	32	;' '
   912  0946  3457               	retlw	87	;'W'
   913  0947  3445               	retlw	69	;'E'
   914  0948  344C               	retlw	76	;'L'
   915  0949  3443               	retlw	67	;'C'
   916  094A  344F               	retlw	79	;'O'
   917  094B  344D               	retlw	77	;'M'
   918  094C  3445               	retlw	69	;'E'
   919  094D  3400               	retlw	0
   920  094E                     STR_11:	
   921  094E  3426               	retlw	38	;'&'
   922  094F  3476               	retlw	118	;'v'
   923  0950  3461               	retlw	97	;'a'
   924  0951  346C               	retlw	108	;'l'
   925  0952  3475               	retlw	117	;'u'
   926  0953  3465               	retlw	101	;'e'
   927  0954  3433               	retlw	51	;'3'
   928  0955  343D               	retlw	61	;'='
   929  0956  3400               	retlw	0
   930  0957                     STR_12:	
   931  0957  3426               	retlw	38	;'&'
   932  0958  3476               	retlw	118	;'v'
   933  0959  3461               	retlw	97	;'a'
   934  095A  346C               	retlw	108	;'l'
   935  095B  3475               	retlw	117	;'u'
   936  095C  3465               	retlw	101	;'e'
   937  095D  3434               	retlw	52	;'4'
   938  095E  343D               	retlw	61	;'='
   939  095F  3400               	retlw	0
   940  0960                     STR_13:	
   941  0960  3422               	retlw	34	;'"'
   942  0961  340D               	retlw	13
   943  0962  340A               	retlw	10
   944  0963  3400               	retlw	0
   945  0964                     STR_8:	
   946  0964  3459               	retlw	89	;'Y'
   947  0965  3445               	retlw	69	;'E'
   948  0966  3453               	retlw	83	;'S'
   949  0967  3400               	retlw	0
   950  08B7                     
   951                           ; #config settings
   952  0000                     
   953                           	psect	cinit
   954  07B0                     start_initialization:	
   955  07B0                     __initialization:	
   956                           
   957                           ; Initialize objects allocated to BANK3
   958  07B0  1783               	bsf	3,7	;select IRP bank2
   959  07B1  30F0               	movlw	low (__pdataBANK3+96)
   960  07B2  00FD               	movwf	btemp+-1
   961  07B3  3001               	movlw	high __pidataBANK3
   962  07B4  00FE               	movwf	btemp
   963  07B5  30A3               	movlw	low __pidataBANK3
   964  07B6  00FF               	movwf	btemp+1
   965  07B7  3090               	movlw	low __pdataBANK3
   966  07B8  0084               	movwf	4
   967  07B9  120A  158A  26AF  120A  118A  	fcall	init_ram0
   968                           
   969                           ; Initialize objects allocated to BANK2
   970  07BE  303D               	movlw	low (__pdataBANK2+45)
   971  07BF  00FD               	movwf	btemp+-1
   972  07C0  300F               	movlw	high __pidataBANK2
   973  07C1  00FE               	movwf	btemp
   974  07C2  305C               	movlw	low __pidataBANK2
   975  07C3  00FF               	movwf	btemp+1
   976  07C4  3010               	movlw	low __pdataBANK2
   977  07C5  0084               	movwf	4
   978  07C6  120A  158A  26AF  120A  118A  	fcall	init_ram0
   979                           
   980                           ; Initialize objects allocated to BANK1
   981  07CB  1383               	bcf	3,7	;select IRP bank0
   982  07CC  30DD               	movlw	low (__pdataBANK1+61)
   983  07CD  00FD               	movwf	btemp+-1
   984  07CE  3000               	movlw	high __pidataBANK1
   985  07CF  00FE               	movwf	btemp
   986  07D0  303C               	movlw	low __pidataBANK1
   987  07D1  00FF               	movwf	btemp+1
   988  07D2  30A0               	movlw	low __pdataBANK1
   989  07D3  0084               	movwf	4
   990  07D4  120A  158A  26AF  120A  118A  	fcall	init_ram0
   991                           
   992                           ; Initialize objects allocated to BANK0
   993  07D9  304D               	movlw	low (__pdataBANK0+45)
   994  07DA  00FD               	movwf	btemp+-1
   995  07DB  3000               	movlw	high __pidataBANK0
   996  07DC  00FE               	movwf	btemp
   997  07DD  300F               	movlw	low __pidataBANK0
   998  07DE  00FF               	movwf	btemp+1
   999  07DF  3020               	movlw	low __pdataBANK0
  1000  07E0  0084               	movwf	4
  1001  07E1  120A  158A  26AF  120A  118A  	fcall	init_ram0
  1002                           
  1003                           ; Clear objects allocated to BANK2
  1004  07E6  1783               	bsf	3,7	;select IRP bank2
  1005  07E7  303D               	movlw	low __pbssBANK2
  1006  07E8  0084               	movwf	4
  1007  07E9  305C               	movlw	low (__pbssBANK2+31)
  1008  07EA  120A  158A  2694  120A  118A  	fcall	clear_ram0
  1009                           
  1010                           ; Clear objects allocated to BANK1
  1011  07EF  1383               	bcf	3,7	;select IRP bank0
  1012  07F0  30DD               	movlw	low __pbssBANK1
  1013  07F1  0084               	movwf	4
  1014  07F2  30EA               	movlw	low (__pbssBANK1+13)
  1015  07F3  120A  158A  2694   	fcall	clear_ram0
  1016                           
  1017                           ; Clear objects allocated to BANK0
  1018  07F6  01E7               	clrf	__pbssBANK0& (0+127)
  1019  07F7  01E8               	clrf	(__pbssBANK0+1)& (0+127)
  1020  07F8  01E9               	clrf	(__pbssBANK0+2)& (0+127)
  1021  07F9  01EA               	clrf	(__pbssBANK0+3)& (0+127)
  1022  07FA  01EB               	clrf	(__pbssBANK0+4)& (0+127)
  1023  07FB  01EC               	clrf	(__pbssBANK0+5)& (0+127)
  1024  07FC                     end_of_initialization:	
  1025                           ;End of C runtime variable initialization code
  1026                           
  1027  07FC                     __end_of__initialization:	
  1028  07FC  0183               	clrf	3
  1029  07FD  120A  118A  2B31   	ljmp	_main	;jump to C main() function
  1030                           
  1031                           	psect	bssBANK0
  1032  0067                     __pbssBANK0:	
  1033  0067                     _j:	
  1034  0067                     	ds	2
  1035  0069                     _gps_flag:	
  1036  0069                     	ds	2
  1037  006B                     _rgps:	
  1038  006B                     	ds	1
  1039  006C                     _i:	
  1040  006C                     	ds	1
  1041                           
  1042                           	psect	dataBANK0
  1043  0020                     __pdataBANK0:	
  1044  0020                     _mode_text:	
  1045  0020                     	ds	10
  1046  002A                     _noecho:	
  1047  002A                     	ds	5
  1048  002F                     GPRS1_Check_OK@F1362:	
  1049  002F                     	ds	3
  1050  0032                     GPRS1_Init@F1338:	
  1051  0032                     	ds	3
  1052  0035                     _gr:	
  1053  0035                     	ds	3
  1054  0038                     _gprs_value5_ip:	
  1055  0038                     	ds	13
  1056  0045                     _b1:	
  1057  0045                     	ds	5
  1058  004A                     _AT:	
  1059  004A                     	ds	3
  1060                           
  1061                           	psect	bssBANK1
  1062  00DD                     __pbssBANK1:	
  1063  00DD                     _rfid:	
  1064  00DD                     	ds	13
  1065                           
  1066                           	psect	dataBANK1
  1067  00A0                     __pdataBANK1:	
  1068  00A0                     _c1:	
  1069  00A0                     	ds	12
  1070  00AC                     _gprs_value4:	
  1071  00AC                     	ds	13
  1072  00B9                     _a1:	
  1073  00B9                     	ds	12
  1074  00C5                     _gprs_web6:	
  1075  00C5                     	ds	12
  1076  00D1                     _gprs_web1:	
  1077  00D1                     	ds	12
  1078                           
  1079                           	psect	dataBANK3
  1080  0190                     __pdataBANK3:	
  1081  0190                     _a3:	
  1082  0190                     	ds	12
  1083  019C                     _a2:	
  1084  019C                     	ds	12
  1085  01A8                     _b4:	
  1086  01A8                     	ds	12
  1087  01B4                     _b3:	
  1088  01B4                     	ds	12
  1089  01C0                     _b2:	
  1090  01C0                     	ds	12
  1091  01CC                     _c4:	
  1092  01CC                     	ds	12
  1093  01D8                     _c3:	
  1094  01D8                     	ds	12
  1095  01E4                     _c2:	
  1096  01E4                     	ds	12
  1097                           
  1098                           	psect	bssBANK2
  1099  013D                     __pbssBANK2:	
  1100  013D                     _locate:	
  1101  013D                     	ds	31
  1102                           
  1103                           	psect	dataBANK2
  1104  0110                     __pdataBANK2:	
  1105  0110                     _a4:	
  1106  0110                     	ds	12
  1107  011C                     _gprs_location:	
  1108  011C                     	ds	17
  1109  012D                     _gprs_web5:	
  1110  012D                     	ds	16
  1111                           
  1112                           	psect	inittext
  1113  0EAB                     init_fetch0:	
  1114                           ;	Called with low address in FSR and high address in W
  1115                           
  1116  0EAB  087E               	movf	126,w
  1117  0EAC  008A               	movwf	10
  1118  0EAD  087F               	movf	127,w
  1119  0EAE  0082               	movwf	2
  1120  0EAF                     init_ram0:	
  1121                           ;Called with:
  1122                           ;	high address of idata address in btemp 
  1123                           ;	low address of idata address in btemp+1 
  1124                           ;	low address of data in FSR
  1125                           ;	high address + 1 of data in btemp-1
  1126                           
  1127  0EAF  26AB  120A  158A   	fcall	init_fetch0
  1128  0EB2  0080               	movwf	0
  1129  0EB3  0A84               	incf	4,f
  1130  0EB4  0804               	movf	4,w
  1131  0EB5  067D               	xorwf	125,w
  1132  0EB6  1903               	btfsc	3,2
  1133  0EB7  3400               	retlw	0
  1134  0EB8  0AFF               	incf	127,f
  1135  0EB9  1903               	btfsc	3,2
  1136  0EBA  0AFE               	incf	126,f
  1137  0EBB  2EAF               	goto	init_ram0
  1138                           
  1139                           	psect	clrtext
  1140  0E94                     clear_ram0:	
  1141                           ;	Called with FSR containing the base address, and
  1142                           ;	W with the last address+1
  1143                           
  1144  0E94  0064               	clrwdt	;clear the watchdog before getting into this loop
  1145  0E95                     clrloop0:	
  1146  0E95  0180               	clrf	0	;clear RAM location pointed to by FSR
  1147  0E96  0A84               	incf	4,f	;increment pointer
  1148  0E97  0604               	xorwf	4,w	;XOR with final address
  1149  0E98  1903               	btfsc	3,2	;have we reached the end yet?
  1150  0E99  3400               	retlw	0	;all done for this memory range, return
  1151  0E9A  0604               	xorwf	4,w	;XOR again to restore value
  1152  0E9B  2E95               	goto	clrloop0	;do the next byte
  1153                           
  1154                           	psect	cstackCOMMON
  1155  0070                     __pcstackCOMMON:	
  1156  0070                     ?_Lcd_Port:	
  1157  0070                     ??_Lcd_Port:	
  1158                           ; 1 bytes @ 0x0
  1159                           
  1160  0070                     ?_Lcd_Cmd:	
  1161                           ; 1 bytes @ 0x0
  1162                           
  1163  0070                     ?_Lcd_Init:	
  1164                           ; 1 bytes @ 0x0
  1165                           
  1166  0070                     ?_Lcd_Write_Char:	
  1167                           ; 1 bytes @ 0x0
  1168                           
  1169  0070                     ?_UART1_Init:	
  1170                           ; 1 bytes @ 0x0
  1171                           
  1172  0070                     ??_UART1_Init:	
  1173                           ; 1 bytes @ 0x0
  1174                           
  1175  0070                     ?_UART1_Write:	
  1176                           ; 1 bytes @ 0x0
  1177                           
  1178  0070                     ??_UART1_Write:	
  1179                           ; 1 bytes @ 0x0
  1180                           
  1181  0070                     ?_UART1_Data_Ready:	
  1182                           ; 1 bytes @ 0x0
  1183                           
  1184  0070                     ??_UART1_Data_Ready:	
  1185                           ; 1 bytes @ 0x0
  1186                           
  1187  0070                     ?_UART2_Init:	
  1188                           ; 1 bytes @ 0x0
  1189                           
  1190  0070                     ??_UART2_Init:	
  1191                           ; 1 bytes @ 0x0
  1192                           
  1193  0070                     ?_UART3_Init:	
  1194                           ; 1 bytes @ 0x0
  1195                           
  1196  0070                     ??_UART3_Init:	
  1197                           ; 1 bytes @ 0x0
  1198                           
  1199  0070                     ?_UART2_Read:	
  1200                           ; 1 bytes @ 0x0
  1201                           
  1202  0070                     ??_UART2_Read:	
  1203                           ; 1 bytes @ 0x0
  1204                           
  1205  0070                     ?_UART3_Read:	
  1206                           ; 1 bytes @ 0x0
  1207                           
  1208  0070                     ??_UART3_Read:	
  1209                           ; 1 bytes @ 0x0
  1210                           
  1211  0070                     ?_GPRS1_Init:	
  1212                           ; 1 bytes @ 0x0
  1213                           
  1214  0070                     ?_GPS_Send3:	
  1215                           ; 1 bytes @ 0x0
  1216                           
  1217  0070                     ?_main:	
  1218                           ; 1 bytes @ 0x0
  1219                           
  1220  0070                     ?_strcmp:	
  1221                           ; 1 bytes @ 0x0
  1222                           
  1223  0070                     ?_Lcd_Clear:	
  1224                           ; 2 bytes @ 0x0
  1225                           
  1226  0070                     Lcd_Port@a:	
  1227                           ; 2 bytes @ 0x0
  1228                           
  1229  0070                     strcmp@s2:	
  1230                           ; 1 bytes @ 0x0
  1231                           
  1232                           
  1233                           ; 1 bytes @ 0x0
  1234  0070                     	ds	1
  1235  0071                     ??_Lcd_Cmd:	
  1236  0071                     ??_Lcd_Write_Char:	
  1237                           ; 1 bytes @ 0x1
  1238                           
  1239  0071                     UART1_Write@data:	
  1240                           ; 1 bytes @ 0x1
  1241                           
  1242                           
  1243                           ; 1 bytes @ 0x1
  1244  0071                     	ds	1
  1245  0072                     ??_strcmp:	
  1246  0072                     ?_UART1_Send:	
  1247                           ; 1 bytes @ 0x2
  1248                           
  1249  0072                     Lcd_Write_Char@temp:	
  1250                           ; 1 bytes @ 0x2
  1251                           
  1252  0072                     UART2_Read@DataValue:	
  1253                           ; 1 bytes @ 0x2
  1254                           
  1255  0072                     UART3_Read@DataValue3:	
  1256                           ; 1 bytes @ 0x2
  1257                           
  1258  0072                     UART1_Send@s:	
  1259                           ; 1 bytes @ 0x2
  1260                           
  1261                           
  1262                           ; 2 bytes @ 0x2
  1263  0072                     	ds	1
  1264  0073                     Lcd_Cmd@a:	
  1265  0073                     Lcd_Write_Char@y:	
  1266                           ; 1 bytes @ 0x3
  1267                           
  1268  0073                     UART2_Read@i:	
  1269                           ; 1 bytes @ 0x3
  1270                           
  1271  0073                     UART3_Read@i:	
  1272                           ; 1 bytes @ 0x3
  1273                           
  1274                           
  1275                           ; 1 bytes @ 0x3
  1276  0073                     	ds	1
  1277  0074                     ??_Lcd_Clear:	
  1278  0074                     ?_Lcd_Set_Cursor:	
  1279                           ; 1 bytes @ 0x4
  1280                           
  1281  0074                     ??_Lcd_Init:	
  1282                           ; 1 bytes @ 0x4
  1283                           
  1284  0074                     ??_UART1_Send:	
  1285                           ; 1 bytes @ 0x4
  1286                           
  1287  0074                     ??_GPS_Send3:	
  1288                           ; 1 bytes @ 0x4
  1289                           
  1290  0074                     ?_GPRS1_Update:	
  1291                           ; 1 bytes @ 0x4
  1292                           
  1293  0074                     Lcd_Set_Cursor@b:	
  1294                           ; 1 bytes @ 0x4
  1295                           
  1296  0074                     Lcd_Write_Char@a:	
  1297                           ; 1 bytes @ 0x4
  1298                           
  1299  0074                     GPRS1_Update@n:	
  1300                           ; 1 bytes @ 0x4
  1301                           
  1302  0074                     strcmp@r:	
  1303                           ; 1 bytes @ 0x4
  1304                           
  1305                           
  1306                           ; 1 bytes @ 0x4
  1307  0074                     	ds	1
  1308  0075                     ??_Lcd_Set_Cursor:	
  1309  0075                     ?_Lcd_Write_String:	
  1310                           ; 1 bytes @ 0x5
  1311                           
  1312  0075                     ?_Lcd_String:	
  1313                           ; 1 bytes @ 0x5
  1314                           
  1315  0075                     Lcd_String@b:	
  1316                           ; 1 bytes @ 0x5
  1317                           
  1318  0075                     GPRS1_Update@l:	
  1319                           ; 1 bytes @ 0x5
  1320                           
  1321  0075                     strcmp@s1:	
  1322                           ; 1 bytes @ 0x5
  1323                           
  1324  0075                     Lcd_Write_String@a:	
  1325                           ; 1 bytes @ 0x5
  1326                           
  1327                           
  1328                           ; 2 bytes @ 0x5
  1329  0075                     	ds	1
  1330  0076                     ??_GPRS1_Update:	
  1331  0076                     Lcd_String@c:	
  1332                           ; 1 bytes @ 0x6
  1333                           
  1334                           
  1335                           ; 2 bytes @ 0x6
  1336  0076                     	ds	1
  1337  0077                     ??_Lcd_Write_String:	
  1338  0077                     Lcd_Set_Cursor@a:	
  1339                           ; 1 bytes @ 0x7
  1340                           
  1341                           
  1342                           ; 1 bytes @ 0x7
  1343  0077                     	ds	1
  1344  0078                     ??_Lcd_String:	
  1345  0078                     Lcd_Set_Cursor@z:	
  1346                           ; 1 bytes @ 0x8
  1347                           
  1348                           
  1349                           ; 1 bytes @ 0x8
  1350  0078                     	ds	1
  1351  0079                     Lcd_Set_Cursor@y:	
  1352  0079                     GPRS1_Update@r:	
  1353                           ; 1 bytes @ 0x9
  1354                           
  1355                           
  1356                           ; 1 bytes @ 0x9
  1357  0079                     	ds	1
  1358  007A                     Lcd_Set_Cursor@temp:	
  1359  007A                     Lcd_Write_String@i:	
  1360                           ; 1 bytes @ 0xA
  1361                           
  1362                           
  1363                           ; 2 bytes @ 0xA
  1364  007A                     	ds	1
  1365  007B                     ??_GPRS1_Init:	
  1366                           
  1367                           ; 1 bytes @ 0xB
  1368  007B                     	ds	3
  1369                           
  1370                           	psect	cstackBANK0
  1371  004D                     __pcstackBANK0:	
  1372  004D                     Lcd_String@a:	
  1373                           
  1374                           ; 1 bytes @ 0x0
  1375  004D                     	ds	1
  1376  004E                     Lcd_String@i:	
  1377                           
  1378                           ; 2 bytes @ 0x1
  1379  004E                     	ds	2
  1380  0050                     Lcd_String@z:	
  1381                           
  1382                           ; 1 bytes @ 0x3
  1383  0050                     	ds	1
  1384  0051                     Lcd_String@y:	
  1385                           
  1386                           ; 1 bytes @ 0x4
  1387  0051                     	ds	1
  1388  0052                     Lcd_String@temp:	
  1389                           
  1390                           ; 1 bytes @ 0x5
  1391  0052                     	ds	1
  1392  0053                     GPRS1_Init@gprs_data:	
  1393                           
  1394                           ; 8 bytes @ 0x6
  1395  0053                     	ds	8
  1396  005B                     GPRS1_Init@response:	
  1397                           
  1398                           ; 3 bytes @ 0xE
  1399  005B                     	ds	3
  1400  005E                     GPRS1_Init@value:	
  1401                           
  1402                           ; 2 bytes @ 0x11
  1403  005E                     	ds	2
  1404  0060                     GPRS1_Init@gprs_value:	
  1405                           
  1406                           ; 1 bytes @ 0x13
  1407  0060                     	ds	1
  1408  0061                     GPRS1_Init@c:	
  1409                           
  1410                           ; 2 bytes @ 0x14
  1411  0061                     	ds	2
  1412  0063                     ??_main:	
  1413                           
  1414                           ; 1 bytes @ 0x16
  1415  0063                     	ds	3
  1416  0066                     main@a:	
  1417                           
  1418                           ; 1 bytes @ 0x19
  1419  0066                     	ds	1
  1420                           
  1421                           	psect	maintext
  1422  0331                     __pmaintext:	
  1423 ;;
  1424 ;;Main: autosize = 0, tempsize = 3, incstack = 0, save=0
  1425 ;;
  1426 ;; *************** function _main *****************
  1427 ;; Defined at:
  1428 ;;		line 29 in file "gprs2.c"
  1429 ;; Parameters:    Size  Location     Type
  1430 ;;		None
  1431 ;; Auto vars:     Size  Location     Type
  1432 ;;  a               1   25[BANK0 ] unsigned char 
  1433 ;; Return value:  Size  Location     Type
  1434 ;;                  1    wreg      void 
  1435 ;; Registers used:
  1436 ;;		wreg, fsr0l, fsr0h, status,2, status,0, btemp+1, pclath, cstack
  1437 ;; Tracked objects:
  1438 ;;		On entry : B00/0
  1439 ;;		On exit  : 0/0
  1440 ;;		Unchanged: 0/0
  1441 ;; Data sizes:     COMMON   BANK0   BANK1   BANK3   BANK2
  1442 ;;      Params:         0       0       0       0       0
  1443 ;;      Locals:         0       1       0       0       0
  1444 ;;      Temps:          0       3       0       0       0
  1445 ;;      Totals:         0       4       0       0       0
  1446 ;;Total ram usage:        4 bytes
  1447 ;; Hardware stack levels required when called:    4
  1448 ;; This function calls:
  1449 ;;		_GPRS1_Init
  1450 ;;		_GPRS1_Update
  1451 ;;		_GPS_Send3
  1452 ;;		_Lcd_Clear
  1453 ;;		_Lcd_Init
  1454 ;;		_Lcd_Set_Cursor
  1455 ;;		_Lcd_String
  1456 ;;		_Lcd_Write_String
  1457 ;;		_UART1_Init
  1458 ;;		_UART2_Init
  1459 ;;		_UART2_Read
  1460 ;;		_UART3_Init
  1461 ;; This function is called by:
  1462 ;;		Startup code after reset
  1463 ;; This function uses a non-reentrant model
  1464 ;;
  1465                           
  1466                           
  1467                           ;psect for function _main
  1468  0331                     _main:	
  1469                           
  1470                           ;gprs2.c: 32: char a;
  1471                           ;gprs2.c: 33: TRISD=0X00;
  1472                           
  1473                           ;incstack = 0
  1474                           ; Regs used in _main: [wreg-fsr0h+status,2+status,0+btemp+1+pclath+cstack]
  1475  0331  1683               	bsf	3,5	;RP0=1, select bank1
  1476  0332  1303               	bcf	3,6	;RP1=0, select bank1
  1477  0333  0188               	clrf	8	;volatile
  1478                           
  1479                           ;gprs2.c: 35: PORTD=0X00;
  1480  0334  1283               	bcf	3,5	;RP0=0, select bank0
  1481  0335  1303               	bcf	3,6	;RP1=0, select bank0
  1482  0336  0188               	clrf	8	;volatile
  1483                           
  1484                           ;gprs2.c: 37: UART1_Init();
  1485  0337  120A  158A  2714  120A  118A  	fcall	_UART1_Init
  1486                           
  1487                           ;gprs2.c: 38: UART2_Init();
  1488  033C  120A  158A  268C  120A  118A  	fcall	_UART2_Init
  1489                           
  1490                           ;gprs2.c: 39: UART3_Init();
  1491  0341  120A  158A  2684  120A  118A  	fcall	_UART3_Init
  1492                           
  1493                           ;gprs2.c: 40: Lcd_Init();
  1494  0346  120A  118A  2147  120A  118A  	fcall	_Lcd_Init
  1495                           
  1496                           ;gprs2.c: 41: Lcd_Clear();
  1497  034B  120A  118A  2004  120A  118A  	fcall	_Lcd_Clear
  1498                           
  1499                           ;gprs2.c: 43: GPRS1_Init();
  1500  0350  120A  118A  2463  120A  118A  	fcall	_GPRS1_Init
  1501                           
  1502                           ;gprs2.c: 44: Lcd_Clear();
  1503  0355  120A  118A  2004  120A  118A  	fcall	_Lcd_Clear
  1504                           
  1505                           ;gprs2.c: 45: Lcd_String(1,4," WELCOME");
  1506  035A  3004               	movlw	4
  1507  035B  1283               	bcf	3,5	;RP0=0, select bank0
  1508  035C  1303               	bcf	3,6	;RP1=0, select bank0
  1509  035D  00E3               	movwf	??_main
  1510  035E  0863               	movf	??_main,w
  1511  035F  00F5               	movwf	Lcd_String@b
  1512  0360  3045               	movlw	low (STR_15| (0+32768))
  1513  0361  00F6               	movwf	Lcd_String@c
  1514  0362  3089               	movlw	high (STR_15| (0+32768))
  1515  0363  00F7               	movwf	Lcd_String@c+1
  1516  0364  3001               	movlw	1
  1517  0365  120A  118A  2203  120A  118A  	fcall	_Lcd_String
  1518                           
  1519                           ;gprs2.c: 46: _delay((unsigned long)((2000)*(20000000/4000.0)));
  1520  036A  3033               	movlw	51
  1521  036B  1283               	bcf	3,5	;RP0=0, select bank0
  1522  036C  1303               	bcf	3,6	;RP1=0, select bank0
  1523  036D  00E5               	movwf	??_main+2
  1524  036E  30BB               	movlw	187
  1525  036F  00E4               	movwf	??_main+1
  1526  0370  30DF               	movlw	223
  1527  0371  00E3               	movwf	??_main
  1528  0372                     u1457:	
  1529  0372  0BE3               	decfsz	??_main,f
  1530  0373  2B72               	goto	u1457
  1531  0374  0BE4               	decfsz	??_main+1,f
  1532  0375  2B72               	goto	u1457
  1533  0376  0BE5               	decfsz	??_main+2,f
  1534  0377  2B72               	goto	u1457
  1535                           
  1536                           ;gprs2.c: 47: rfid[12] = '\0';
  1537  0378  1683               	bsf	3,5	;RP0=1, select bank1
  1538  0379  1303               	bcf	3,6	;RP1=0, select bank1
  1539  037A  01E9               	clrf	(_rfid^(0+128)+12)
  1540  037B  2BFF               	goto	l2085
  1541  037C                     l2095:	
  1542                           
  1543                           ;gprs2.c: 57: {
  1544                           ;gprs2.c: 58: Lcd_Clear();
  1545  037C  120A  118A  2004  120A  118A  	fcall	_Lcd_Clear
  1546                           
  1547                           ;gprs2.c: 59: Lcd_Set_Cursor(1,1);
  1548  0381  01F4               	clrf	Lcd_Set_Cursor@b
  1549  0382  0AF4               	incf	Lcd_Set_Cursor@b,f
  1550  0383  3001               	movlw	1
  1551  0384  120A  118A  20FD  120A  118A  	fcall	_Lcd_Set_Cursor
  1552                           
  1553                           ;gprs2.c: 60: Lcd_Write_String("STAFF: RAGU");
  1554  0389  3017               	movlw	low (STR_17| (0+32768))
  1555  038A  00F5               	movwf	Lcd_Write_String@a
  1556  038B  3089               	movlw	high (STR_17| (0+32768))
  1557  038C  00F6               	movwf	Lcd_Write_String@a+1
  1558  038D  120A  158A  27C3  120A  118A  	fcall	_Lcd_Write_String
  1559                           
  1560                           ;gprs2.c: 61: GPS_Send3();
  1561  0392  120A  118A  2282  120A  118A  	fcall	_GPS_Send3
  1562                           
  1563                           ;gprs2.c: 62: GPRS1_Update(a1,b1,locate.gprs_location);
  1564  0397  3045               	movlw	(low (_b1| 0))& (0+255)
  1565  0398  1283               	bcf	3,5	;RP0=0, select bank0
  1566  0399  1303               	bcf	3,6	;RP1=0, select bank0
  1567  039A  00E3               	movwf	??_main
  1568  039B  0863               	movf	??_main,w
  1569  039C  00F4               	movwf	GPRS1_Update@n
  1570  039D  303D               	movlw	(low (_locate| (0+256)))& (0+255)
  1571  039E  00E4               	movwf	??_main+1
  1572  039F  0864               	movf	??_main+1,w
  1573  03A0  00F5               	movwf	GPRS1_Update@l
  1574  03A1  30B9               	movlw	(low (_a1| 0))& (0+255)
  1575  03A2  120A  118A  2609  120A  118A  	fcall	_GPRS1_Update
  1576                           
  1577                           ;gprs2.c: 63: _delay((unsigned long)((2000)*(20000000/4000.0)));
  1578  03A7  3033               	movlw	51
  1579  03A8  1283               	bcf	3,5	;RP0=0, select bank0
  1580  03A9  1303               	bcf	3,6	;RP1=0, select bank0
  1581  03AA  00E5               	movwf	??_main+2
  1582  03AB  30BB               	movlw	187
  1583  03AC  00E4               	movwf	??_main+1
  1584  03AD  30DF               	movlw	223
  1585  03AE  00E3               	movwf	??_main
  1586  03AF                     u1477:	
  1587  03AF  0BE3               	decfsz	??_main,f
  1588  03B0  2BAF               	goto	u1477
  1589  03B1  0BE4               	decfsz	??_main+1,f
  1590  03B2  2BAF               	goto	u1477
  1591  03B3  0BE5               	decfsz	??_main+2,f
  1592  03B4  2BAF               	goto	u1477
  1593                           
  1594                           ;gprs2.c: 65: }
  1595                           
  1596                           ;gprs2.c: 64: goto s;
  1597  03B5  2BFF               	goto	l2085
  1598  03B6                     l2109:	
  1599                           
  1600                           ;gprs2.c: 67: {
  1601                           ;gprs2.c: 68: Lcd_Clear();
  1602  03B6  120A  118A  2004  120A  118A  	fcall	_Lcd_Clear
  1603                           
  1604                           ;gprs2.c: 69: Lcd_Set_Cursor(1,1);
  1605  03BB  01F4               	clrf	Lcd_Set_Cursor@b
  1606  03BC  0AF4               	incf	Lcd_Set_Cursor@b,f
  1607  03BD  3001               	movlw	1
  1608  03BE  120A  118A  20FD  120A  118A  	fcall	_Lcd_Set_Cursor
  1609                           
  1610                           ;gprs2.c: 70: Lcd_Write_String("STAFF: SIVA");
  1611  03C3  300B               	movlw	low (STR_18| (0+32768))
  1612  03C4  00F5               	movwf	Lcd_Write_String@a
  1613  03C5  3089               	movlw	high (STR_18| (0+32768))
  1614  03C6  00F6               	movwf	Lcd_Write_String@a+1
  1615  03C7  120A  158A  27C3  120A  118A  	fcall	_Lcd_Write_String
  1616                           
  1617                           ;gprs2.c: 71: _delay((unsigned long)((2000)*(20000000/4000.0)));
  1618  03CC  3033               	movlw	51
  1619  03CD  1283               	bcf	3,5	;RP0=0, select bank0
  1620  03CE  1303               	bcf	3,6	;RP1=0, select bank0
  1621  03CF  00E5               	movwf	??_main+2
  1622  03D0  30BB               	movlw	187
  1623  03D1  00E4               	movwf	??_main+1
  1624  03D2  30DF               	movlw	223
  1625  03D3  00E3               	movwf	??_main
  1626  03D4                     u1487:	
  1627  03D4  0BE3               	decfsz	??_main,f
  1628  03D5  2BD4               	goto	u1487
  1629  03D6  0BE4               	decfsz	??_main+1,f
  1630  03D7  2BD4               	goto	u1487
  1631  03D8  0BE5               	decfsz	??_main+2,f
  1632  03D9  2BD4               	goto	u1487
  1633                           
  1634                           ;gprs2.c: 72: }
  1635  03DA  2BFF               	goto	l2085
  1636  03DB                     l2117:	
  1637                           
  1638                           ;gprs2.c: 74: {
  1639                           ;gprs2.c: 75: Lcd_Clear();
  1640  03DB  120A  118A  2004  120A  118A  	fcall	_Lcd_Clear
  1641                           
  1642                           ;gprs2.c: 76: Lcd_Set_Cursor(1,1);
  1643  03E0  01F4               	clrf	Lcd_Set_Cursor@b
  1644  03E1  0AF4               	incf	Lcd_Set_Cursor@b,f
  1645  03E2  3001               	movlw	1
  1646  03E3  120A  118A  20FD  120A  118A  	fcall	_Lcd_Set_Cursor
  1647                           
  1648                           ;gprs2.c: 77: Lcd_Write_String("STAFF: RAJ");
  1649  03E8  303A               	movlw	low (STR_19| (0+32768))
  1650  03E9  00F5               	movwf	Lcd_Write_String@a
  1651  03EA  3089               	movlw	high (STR_19| (0+32768))
  1652  03EB  00F6               	movwf	Lcd_Write_String@a+1
  1653  03EC  120A  158A  27C3  120A  118A  	fcall	_Lcd_Write_String
  1654                           
  1655                           ;gprs2.c: 78: _delay((unsigned long)((2000)*(20000000/4000.0)));
  1656  03F1  3033               	movlw	51
  1657  03F2  1283               	bcf	3,5	;RP0=0, select bank0
  1658  03F3  1303               	bcf	3,6	;RP1=0, select bank0
  1659  03F4  00E5               	movwf	??_main+2
  1660  03F5  30BB               	movlw	187
  1661  03F6  00E4               	movwf	??_main+1
  1662  03F7  30DF               	movlw	223
  1663  03F8  00E3               	movwf	??_main
  1664  03F9                     u1497:	
  1665  03F9  0BE3               	decfsz	??_main,f
  1666  03FA  2BF9               	goto	u1497
  1667  03FB  0BE4               	decfsz	??_main+1,f
  1668  03FC  2BF9               	goto	u1497
  1669  03FD  0BE5               	decfsz	??_main+2,f
  1670  03FE  2BF9               	goto	u1497
  1671  03FF                     l2085:	
  1672                           ;gprs2.c: 49: {
  1673                           ;gprs2.c: 51: s:
  1674                           
  1675                           ;gprs2.c: 48: while(1)
  1676                           
  1677                           ;gprs2.c: 79: }
  1678                           
  1679                           
  1680                           ;gprs2.c: 52: Lcd_Clear();
  1681  03FF  120A  118A  2004  120A  118A  	fcall	_Lcd_Clear
  1682                           
  1683                           ;gprs2.c: 53: Lcd_String(1,1,"Waiting...");
  1684  0404  01F5               	clrf	Lcd_String@b
  1685  0405  0AF5               	incf	Lcd_String@b,f
  1686  0406  302F               	movlw	low (STR_16| (0+32768))
  1687  0407  00F6               	movwf	Lcd_String@c
  1688  0408  3089               	movlw	high (STR_16| (0+32768))
  1689  0409  00F7               	movwf	Lcd_String@c+1
  1690  040A  3001               	movlw	1
  1691  040B  120A  118A  2203  120A  118A  	fcall	_Lcd_String
  1692                           
  1693                           ;gprs2.c: 54: _delay((unsigned long)((200)*(20000000/4000.0)));
  1694  0410  3006               	movlw	6
  1695  0411  1283               	bcf	3,5	;RP0=0, select bank0
  1696  0412  1303               	bcf	3,6	;RP1=0, select bank0
  1697  0413  00E5               	movwf	??_main+2
  1698  0414  3013               	movlw	19
  1699  0415  00E4               	movwf	??_main+1
  1700  0416  30AD               	movlw	173
  1701  0417  00E3               	movwf	??_main
  1702  0418                     u1467:	
  1703  0418  0BE3               	decfsz	??_main,f
  1704  0419  2C18               	goto	u1467
  1705  041A  0BE4               	decfsz	??_main+1,f
  1706  041B  2C18               	goto	u1467
  1707  041C  0BE5               	decfsz	??_main+2,f
  1708  041D  2C18               	goto	u1467
  1709                           
  1710                           ;gprs2.c: 55: a = UART2_Read();
  1711  041E  120A  118A  20BB  120A  118A  	fcall	_UART2_Read
  1712  0423  1283               	bcf	3,5	;RP0=0, select bank0
  1713  0424  1303               	bcf	3,6	;RP1=0, select bank0
  1714  0425  00E3               	movwf	??_main
  1715  0426  0863               	movf	??_main,w
  1716  0427  00E6               	movwf	main@a
  1717                           
  1718                           ;gprs2.c: 56: if(a=='1')
  1719  0428  3031               	movlw	49
  1720  0429  0666               	xorwf	main@a,w
  1721  042A  1903               	btfsc	3,2
  1722  042B  2B7C               	goto	l2095
  1723                           
  1724                           ;gprs2.c: 66: else if(a=='2')
  1725  042C  3032               	movlw	50
  1726  042D  1283               	bcf	3,5	;RP0=0, select bank0
  1727  042E  1303               	bcf	3,6	;RP1=0, select bank0
  1728  042F  0666               	xorwf	main@a,w
  1729  0430  1903               	btfsc	3,2
  1730  0431  2BB6               	goto	l2109
  1731                           
  1732                           ;gprs2.c: 73: else if(a=='3')
  1733  0432  3033               	movlw	51
  1734  0433  1283               	bcf	3,5	;RP0=0, select bank0
  1735  0434  1303               	bcf	3,6	;RP1=0, select bank0
  1736  0435  0666               	xorwf	main@a,w
  1737  0436  1903               	btfsc	3,2
  1738  0437  2BDB               	goto	l2117
  1739                           
  1740                           ;gprs2.c: 80: else if(a=='4')
  1741  0438  3034               	movlw	52
  1742  0439  1283               	bcf	3,5	;RP0=0, select bank0
  1743  043A  1303               	bcf	3,6	;RP1=0, select bank0
  1744  043B  0666               	xorwf	main@a,w
  1745  043C  1D03               	btfss	3,2
  1746  043D  2BFF               	goto	l2085
  1747                           
  1748                           ;gprs2.c: 81: {
  1749                           ;gprs2.c: 82: Lcd_Clear();
  1750  043E  120A  118A  2004  120A  118A  	fcall	_Lcd_Clear
  1751                           
  1752                           ;gprs2.c: 83: Lcd_Set_Cursor(1,1);
  1753  0443  01F4               	clrf	Lcd_Set_Cursor@b
  1754  0444  0AF4               	incf	Lcd_Set_Cursor@b,f
  1755  0445  3001               	movlw	1
  1756  0446  120A  118A  20FD  120A  118A  	fcall	_Lcd_Set_Cursor
  1757                           
  1758                           ;gprs2.c: 84: Lcd_Write_String("STAFF: KARU");
  1759  044B  3023               	movlw	low (STR_20| (0+32768))
  1760  044C  00F5               	movwf	Lcd_Write_String@a
  1761  044D  3089               	movlw	high (STR_20| (0+32768))
  1762  044E  00F6               	movwf	Lcd_Write_String@a+1
  1763  044F  120A  158A  27C3  120A  118A  	fcall	_Lcd_Write_String
  1764                           
  1765                           ;gprs2.c: 85: _delay((unsigned long)((2000)*(20000000/4000.0)));
  1766  0454  3033               	movlw	51
  1767  0455  1283               	bcf	3,5	;RP0=0, select bank0
  1768  0456  1303               	bcf	3,6	;RP1=0, select bank0
  1769  0457  00E5               	movwf	??_main+2
  1770  0458  30BB               	movlw	187
  1771  0459  00E4               	movwf	??_main+1
  1772  045A  30DF               	movlw	223
  1773  045B  00E3               	movwf	??_main
  1774  045C                     u1507:	
  1775  045C  0BE3               	decfsz	??_main,f
  1776  045D  2C5C               	goto	u1507
  1777  045E  0BE4               	decfsz	??_main+1,f
  1778  045F  2C5C               	goto	u1507
  1779  0460  0BE5               	decfsz	??_main+2,f
  1780  0461  2C5C               	goto	u1507
  1781                           
  1782                           ;gprs2.c: 87: else
  1783                           ;gprs2.c: 88: {
  1784                           ;gprs2.c: 89: goto s;
  1785                           
  1786                           ;gprs2.c: 86: }
  1787  0462  2BFF               	goto	l2085
  1788  0463                     __end_of_main:	
  1789                           
  1790                           	psect	text1
  1791  00BB                     __ptext1:	
  1792 ;; *************** function _UART2_Read *****************
  1793 ;; Defined at:
  1794 ;;		line 285 in file "pic16f87xa.c"
  1795 ;; Parameters:    Size  Location     Type
  1796 ;;		None
  1797 ;; Auto vars:     Size  Location     Type
  1798 ;;  i               1    3[COMMON] unsigned char 
  1799 ;;  DataValue       1    2[COMMON] unsigned char 
  1800 ;; Return value:  Size  Location     Type
  1801 ;;                  1    wreg      unsigned char 
  1802 ;; Registers used:
  1803 ;;		wreg, status,2, status,0
  1804 ;; Tracked objects:
  1805 ;;		On entry : 0/0
  1806 ;;		On exit  : 0/0
  1807 ;;		Unchanged: 0/0
  1808 ;; Data sizes:     COMMON   BANK0   BANK1   BANK3   BANK2
  1809 ;;      Params:         0       0       0       0       0
  1810 ;;      Locals:         2       0       0       0       0
  1811 ;;      Temps:          2       0       0       0       0
  1812 ;;      Totals:         4       0       0       0       0
  1813 ;;Total ram usage:        4 bytes
  1814 ;; Hardware stack levels used:    1
  1815 ;; This function calls:
  1816 ;;		Nothing
  1817 ;; This function is called by:
  1818 ;;		_main
  1819 ;; This function uses a non-reentrant model
  1820 ;;
  1821                           
  1822                           
  1823                           ;psect for function _UART2_Read
  1824  00BB                     _UART2_Read:	
  1825                           
  1826                           ;pic16f87xa.c: 290: unsigned char DataValue = 0;
  1827                           
  1828                           ;incstack = 0
  1829                           ; Regs used in _UART2_Read: [wreg+status,2+status,0]
  1830  00BB  01F2               	clrf	UART2_Read@DataValue
  1831  00BC                     l224:	
  1832                           ;pic16f87xa.c: 293: while(RB1==1);
  1833                           
  1834  00BC  1283               	bcf	3,5	;RP0=0, select bank0
  1835  00BD  1303               	bcf	3,6	;RP1=0, select bank0
  1836  00BE  1886               	btfsc	6,1	;volatile
  1837  00BF  28BC               	goto	l224
  1838                           
  1839                           ;pic16f87xa.c: 295: _delay((unsigned long)((98)*(20000000/4000000.0)));
  1840  00C0  30A3               	movlw	163
  1841  00C1  00F0               	movwf	??_UART2_Read
  1842  00C2                     u1517:	
  1843  00C2  0BF0               	decfsz	??_UART2_Read,f
  1844  00C3  28C2               	goto	u1517
  1845                           
  1846                           ;pic16f87xa.c: 296: _delay((unsigned long)((98/2)*(20000000/4000000.0)));
  1847  00C4  3051               	movlw	81
  1848  00C5  00F0               	movwf	??_UART2_Read
  1849  00C6                     u1527:	
  1850  00C6  0BF0               	decfsz	??_UART2_Read,f
  1851  00C7  28C6               	goto	u1527
  1852  00C8  0000               	nop
  1853                           
  1854                           ;pic16f87xa.c: 298: for ( unsigned char i = 0; i < 8; i++ )
  1855  00C9  01F3               	clrf	UART2_Read@i
  1856  00CA  3008               	movlw	8
  1857  00CB  0273               	subwf	UART2_Read@i,w
  1858  00CC  1803               	btfsc	3,0
  1859  00CD  28EB               	goto	l228
  1860  00CE                     l227:	
  1861                           
  1862                           ;pic16f87xa.c: 299: {
  1863                           ;pic16f87xa.c: 300: if ( RB1 == 1 )
  1864  00CE  1283               	bcf	3,5	;RP0=0, select bank0
  1865  00CF  1303               	bcf	3,6	;RP1=0, select bank0
  1866  00D0  1C86               	btfss	6,1	;volatile
  1867  00D1  28DF               	goto	l1717
  1868                           
  1869                           ;pic16f87xa.c: 301: {
  1870                           ;pic16f87xa.c: 302: DataValue += (1<<i);
  1871  00D2  3001               	movlw	1
  1872  00D3  00F0               	movwf	??_UART2_Read
  1873  00D4  0A73               	incf	UART2_Read@i,w
  1874  00D5  28D8               	goto	u1074
  1875  00D6                     u1075:	
  1876  00D6  1003               	clrc
  1877  00D7  0DF0               	rlf	??_UART2_Read,f
  1878  00D8                     u1074:	
  1879  00D8  3EFF               	addlw	-1
  1880  00D9  1D03               	skipz
  1881  00DA  28D6               	goto	u1075
  1882  00DB  0870               	movf	??_UART2_Read,w
  1883  00DC  00F1               	movwf	??_UART2_Read+1
  1884  00DD  0871               	movf	??_UART2_Read+1,w
  1885  00DE  07F2               	addwf	UART2_Read@DataValue,f
  1886  00DF                     l1717:	
  1887                           
  1888                           ;pic16f87xa.c: 303: }
  1889                           ;pic16f87xa.c: 305: _delay((unsigned long)((98)*(20000000/4000000.0)));
  1890  00DF  30A3               	movlw	163
  1891  00E0  00F0               	movwf	??_UART2_Read
  1892  00E1                     u1537:	
  1893  00E1  0BF0               	decfsz	??_UART2_Read,f
  1894  00E2  28E1               	goto	u1537
  1895  00E3  3001               	movlw	1
  1896  00E4  00F0               	movwf	??_UART2_Read
  1897  00E5  0870               	movf	??_UART2_Read,w
  1898  00E6  07F3               	addwf	UART2_Read@i,f
  1899  00E7  3008               	movlw	8
  1900  00E8  0273               	subwf	UART2_Read@i,w
  1901  00E9  1C03               	skipc
  1902  00EA  28CE               	goto	l227
  1903  00EB                     l228:	
  1904                           
  1905                           ;pic16f87xa.c: 306: }
  1906                           ;pic16f87xa.c: 309: if ( RB1 == 1 )
  1907  00EB  1283               	bcf	3,5	;RP0=0, select bank0
  1908  00EC  1303               	bcf	3,6	;RP1=0, select bank0
  1909  00ED  1C86               	btfss	6,1	;volatile
  1910  00EE  28F6               	goto	l1727
  1911                           
  1912                           ;pic16f87xa.c: 310: {
  1913                           ;pic16f87xa.c: 311: _delay((unsigned long)((98/2)*(20000000/4000000.0)));
  1914  00EF  3051               	movlw	81
  1915  00F0  00F0               	movwf	??_UART2_Read
  1916  00F1                     u1547:	
  1917  00F1  0BF0               	decfsz	??_UART2_Read,f
  1918  00F2  28F1               	goto	u1547
  1919  00F3  0000               	nop
  1920                           
  1921                           ;pic16f87xa.c: 312: return DataValue;
  1922  00F4  0872               	movf	UART2_Read@DataValue,w
  1923                           
  1924                           ;pic16f87xa.c: 313: }
  1925  00F5  0008               	return
  1926  00F6                     l1727:	
  1927                           
  1928                           ;pic16f87xa.c: 314: else
  1929                           ;pic16f87xa.c: 315: {
  1930                           ;pic16f87xa.c: 316: _delay((unsigned long)((98/2)*(20000000/4000000.0)));
  1931  00F6  3051               	movlw	81
  1932  00F7  00F0               	movwf	??_UART2_Read
  1933  00F8                     u1557:	
  1934  00F8  0BF0               	decfsz	??_UART2_Read,f
  1935  00F9  28F8               	goto	u1557
  1936  00FA  0000               	nop
  1937                           
  1938                           ;pic16f87xa.c: 317: return 0x000;
  1939  00FB  3000               	movlw	0
  1940  00FC  0008               	return
  1941  00FD                     __end_of_UART2_Read:	
  1942                           
  1943                           	psect	text2
  1944  0E8C                     __ptext2:	
  1945 ;; *************** function _UART2_Init *****************
  1946 ;; Defined at:
  1947 ;;		line 255 in file "pic16f87xa.c"
  1948 ;; Parameters:    Size  Location     Type
  1949 ;;		None
  1950 ;; Auto vars:     Size  Location     Type
  1951 ;;		None
  1952 ;; Return value:  Size  Location     Type
  1953 ;;                  1    wreg      void 
  1954 ;; Registers used:
  1955 ;;		None
  1956 ;; Tracked objects:
  1957 ;;		On entry : 0/0
  1958 ;;		On exit  : 0/0
  1959 ;;		Unchanged: 0/0
  1960 ;; Data sizes:     COMMON   BANK0   BANK1   BANK3   BANK2
  1961 ;;      Params:         0       0       0       0       0
  1962 ;;      Locals:         0       0       0       0       0
  1963 ;;      Temps:          0       0       0       0       0
  1964 ;;      Totals:         0       0       0       0       0
  1965 ;;Total ram usage:        0 bytes
  1966 ;; Hardware stack levels used:    1
  1967 ;; This function calls:
  1968 ;;		Nothing
  1969 ;; This function is called by:
  1970 ;;		_main
  1971 ;; This function uses a non-reentrant model
  1972 ;;
  1973                           
  1974                           
  1975                           ;psect for function _UART2_Init
  1976  0E8C                     _UART2_Init:	
  1977                           
  1978                           ;pic16f87xa.c: 264: RB2 = 1;
  1979                           
  1980                           ;incstack = 0
  1981                           ; Regs used in _UART2_Init: []
  1982  0E8C  1283               	bcf	3,5	;RP0=0, select bank0
  1983  0E8D  1303               	bcf	3,6	;RP1=0, select bank0
  1984  0E8E  1506               	bsf	6,2	;volatile
  1985                           
  1986                           ;pic16f87xa.c: 266: TRISB1 = 1;
  1987  0E8F  1683               	bsf	3,5	;RP0=1, select bank1
  1988  0E90  1303               	bcf	3,6	;RP1=0, select bank1
  1989  0E91  1486               	bsf	6,1	;volatile
  1990                           
  1991                           ;pic16f87xa.c: 267: TRISB2 = 0;
  1992  0E92  1106               	bcf	6,2	;volatile
  1993  0E93  0008               	return
  1994  0E94                     __end_of_UART2_Init:	
  1995                           
  1996                           	psect	text3
  1997  0F14                     __ptext3:	
  1998 ;; *************** function _UART1_Init *****************
  1999 ;; Defined at:
  2000 ;;		line 167 in file "pic16f87xa.c"
  2001 ;; Parameters:    Size  Location     Type
  2002 ;;		None
  2003 ;; Auto vars:     Size  Location     Type
  2004 ;;		None
  2005 ;; Return value:  Size  Location     Type
  2006 ;;                  1    wreg      void 
  2007 ;; Registers used:
  2008 ;;		wreg
  2009 ;; Tracked objects:
  2010 ;;		On entry : 0/0
  2011 ;;		On exit  : 0/0
  2012 ;;		Unchanged: 0/0
  2013 ;; Data sizes:     COMMON   BANK0   BANK1   BANK3   BANK2
  2014 ;;      Params:         0       0       0       0       0
  2015 ;;      Locals:         0       0       0       0       0
  2016 ;;      Temps:          0       0       0       0       0
  2017 ;;      Totals:         0       0       0       0       0
  2018 ;;Total ram usage:        0 bytes
  2019 ;; Hardware stack levels used:    1
  2020 ;; This function calls:
  2021 ;;		Nothing
  2022 ;; This function is called by:
  2023 ;;		_main
  2024 ;; This function uses a non-reentrant model
  2025 ;;
  2026                           
  2027                           
  2028                           ;psect for function _UART1_Init
  2029  0F14                     _UART1_Init:	
  2030                           
  2031                           ;pic16f87xa.c: 170: TRISC7 = 1;
  2032                           
  2033                           ;incstack = 0
  2034                           ; Regs used in _UART1_Init: [wreg]
  2035  0F14  1683               	bsf	3,5	;RP0=1, select bank1
  2036  0F15  1303               	bcf	3,6	;RP1=0, select bank1
  2037  0F16  1787               	bsf	7,7	;volatile
  2038                           
  2039                           ;pic16f87xa.c: 171: TRISC6 = 0;
  2040  0F17  1307               	bcf	7,6	;volatile
  2041                           
  2042                           ;pic16f87xa.c: 172: TXSTA=0X24;
  2043  0F18  3024               	movlw	36
  2044  0F19  0098               	movwf	24	;volatile
  2045                           
  2046                           ;pic16f87xa.c: 173: BRGH=1;
  2047  0F1A  1518               	bsf	24,2	;volatile
  2048                           
  2049                           ;pic16f87xa.c: 174: RCSTA=0X90;
  2050  0F1B  3090               	movlw	144
  2051  0F1C  1283               	bcf	3,5	;RP0=0, select bank0
  2052  0F1D  1303               	bcf	3,6	;RP1=0, select bank0
  2053  0F1E  0098               	movwf	24	;volatile
  2054                           
  2055                           ;pic16f87xa.c: 175: TXEN=1;
  2056  0F1F  1683               	bsf	3,5	;RP0=1, select bank1
  2057  0F20  1303               	bcf	3,6	;RP1=0, select bank1
  2058  0F21  1698               	bsf	24,5	;volatile
  2059                           
  2060                           ;pic16f87xa.c: 176: SPEN=1;
  2061  0F22  1283               	bcf	3,5	;RP0=0, select bank0
  2062  0F23  1303               	bcf	3,6	;RP1=0, select bank0
  2063  0F24  1798               	bsf	24,7	;volatile
  2064                           
  2065                           ;pic16f87xa.c: 177: SYNC = 0;
  2066  0F25  1683               	bsf	3,5	;RP0=1, select bank1
  2067  0F26  1303               	bcf	3,6	;RP1=0, select bank1
  2068  0F27  1218               	bcf	24,4	;volatile
  2069                           
  2070                           ;pic16f87xa.c: 178: CREN = 1;
  2071  0F28  1283               	bcf	3,5	;RP0=0, select bank0
  2072  0F29  1303               	bcf	3,6	;RP1=0, select bank0
  2073  0F2A  1618               	bsf	24,4	;volatile
  2074                           
  2075                           ;pic16f87xa.c: 179: TXEN = 1;
  2076  0F2B  1683               	bsf	3,5	;RP0=1, select bank1
  2077  0F2C  1303               	bcf	3,6	;RP1=0, select bank1
  2078  0F2D  1698               	bsf	24,5	;volatile
  2079                           
  2080                           ;pic16f87xa.c: 180: TX9=0;
  2081  0F2E  1318               	bcf	24,6	;volatile
  2082                           
  2083                           ;pic16f87xa.c: 181: RX9=0;
  2084  0F2F  1283               	bcf	3,5	;RP0=0, select bank0
  2085  0F30  1303               	bcf	3,6	;RP1=0, select bank0
  2086  0F31  1318               	bcf	24,6	;volatile
  2087                           
  2088                           ;pic16f87xa.c: 182: SPBRG=129;
  2089  0F32  3081               	movlw	129
  2090  0F33  1683               	bsf	3,5	;RP0=1, select bank1
  2091  0F34  1303               	bcf	3,6	;RP1=0, select bank1
  2092  0F35  0099               	movwf	25	;volatile
  2093  0F36  0008               	return
  2094  0F37                     __end_of_UART1_Init:	
  2095                           
  2096                           	psect	text4
  2097  0FC3                     __ptext4:	
  2098 ;; *************** function _Lcd_Write_String *****************
  2099 ;; Defined at:
  2100 ;;		line 138 in file "pic16f87xa.c"
  2101 ;; Parameters:    Size  Location     Type
  2102 ;;  a               2    5[COMMON] PTR unsigned char 
  2103 ;;		 -> STR_20(12), STR_19(11), STR_18(12), STR_17(12), 
  2104 ;; Auto vars:     Size  Location     Type
  2105 ;;  i               2   10[COMMON] int 
  2106 ;; Return value:  Size  Location     Type
  2107 ;;                  1    wreg      void 
  2108 ;; Registers used:
  2109 ;;		wreg, fsr0l, fsr0h, status,2, status,0, btemp+1, pclath, cstack
  2110 ;; Tracked objects:
  2111 ;;		On entry : 0/0
  2112 ;;		On exit  : 0/0
  2113 ;;		Unchanged: 0/0
  2114 ;; Data sizes:     COMMON   BANK0   BANK1   BANK3   BANK2
  2115 ;;      Params:         2       0       0       0       0
  2116 ;;      Locals:         2       0       0       0       0
  2117 ;;      Temps:          3       0       0       0       0
  2118 ;;      Totals:         7       0       0       0       0
  2119 ;;Total ram usage:        7 bytes
  2120 ;; Hardware stack levels used:    1
  2121 ;; Hardware stack levels required when called:    2
  2122 ;; This function calls:
  2123 ;;		_Lcd_Write_Char
  2124 ;; This function is called by:
  2125 ;;		_main
  2126 ;; This function uses a non-reentrant model
  2127 ;;
  2128                           
  2129                           
  2130                           ;psect for function _Lcd_Write_String
  2131  0FC3                     _Lcd_Write_String:	
  2132                           
  2133                           ;pic16f87xa.c: 140: int i;
  2134                           ;pic16f87xa.c: 141: for(i=0;a[i]!='\0';i++)
  2135                           
  2136                           ;incstack = 0
  2137                           ; Regs used in _Lcd_Write_String: [wreg-fsr0h+status,2+status,0+btemp+1+pclath+cstack]
  2138  0FC3  01FA               	clrf	Lcd_Write_String@i
  2139  0FC4  01FB               	clrf	Lcd_Write_String@i+1
  2140  0FC5                     l1681:	
  2141  0FC5  087A               	movf	Lcd_Write_String@i,w
  2142  0FC6  0775               	addwf	Lcd_Write_String@a,w
  2143  0FC7  00F8               	movwf	??_Lcd_Write_String+1
  2144  0FC8  0876               	movf	Lcd_Write_String@a+1,w
  2145  0FC9  00F7               	movwf	??_Lcd_Write_String
  2146  0FCA  1803               	skipnc
  2147  0FCB  0AF7               	incf	??_Lcd_Write_String,f
  2148  0FCC  1BFA               	btfsc	Lcd_Write_String@i,7
  2149  0FCD  03F7               	decf	??_Lcd_Write_String,f
  2150  0FCE  0877               	movf	??_Lcd_Write_String,w
  2151  0FCF  00F9               	movwf	??_Lcd_Write_String+2
  2152  0FD0  0879               	movf	??_Lcd_Write_String+2,w
  2153  0FD1  1283               	bcf	3,5	;RP0=0, select bank0
  2154  0FD2  1303               	bcf	3,6	;RP1=0, select bank0
  2155  0FD3  00FF               	movwf	127
  2156  0FD4  0878               	movf	??_Lcd_Write_String+1,w
  2157  0FD5  0084               	movwf	4
  2158  0FD6  120A  158A  2168  120A  158A  	fcall	stringtab
  2159  0FDB  3A00               	xorlw	0
  2160  0FDC  1903               	btfsc	3,2
  2161  0FDD  0008               	return
  2162                           
  2163                           ;pic16f87xa.c: 142: Lcd_Write_Char(a[i]);
  2164  0FDE  087A               	movf	Lcd_Write_String@i,w
  2165  0FDF  0775               	addwf	Lcd_Write_String@a,w
  2166  0FE0  00F8               	movwf	??_Lcd_Write_String+1
  2167  0FE1  0876               	movf	Lcd_Write_String@a+1,w
  2168  0FE2  00F7               	movwf	??_Lcd_Write_String
  2169  0FE3  1803               	skipnc
  2170  0FE4  0AF7               	incf	??_Lcd_Write_String,f
  2171  0FE5  1BFA               	btfsc	Lcd_Write_String@i,7
  2172  0FE6  03F7               	decf	??_Lcd_Write_String,f
  2173  0FE7  0877               	movf	??_Lcd_Write_String,w
  2174  0FE8  00F9               	movwf	??_Lcd_Write_String+2
  2175  0FE9  0879               	movf	??_Lcd_Write_String+2,w
  2176  0FEA  1283               	bcf	3,5	;RP0=0, select bank0
  2177  0FEB  1303               	bcf	3,6	;RP1=0, select bank0
  2178  0FEC  00FF               	movwf	127
  2179  0FED  0878               	movf	??_Lcd_Write_String+1,w
  2180  0FEE  0084               	movwf	4
  2181  0FEF  120A  158A  2168  120A  158A  	fcall	stringtab
  2182  0FF4  120A  158A  2789  120A  158A  	fcall	_Lcd_Write_Char
  2183  0FF9  3001               	movlw	1
  2184  0FFA  07FA               	addwf	Lcd_Write_String@i,f
  2185  0FFB  1803               	skipnc
  2186  0FFC  0AFB               	incf	Lcd_Write_String@i+1,f
  2187  0FFD  3000               	movlw	0
  2188  0FFE  07FB               	addwf	Lcd_Write_String@i+1,f
  2189  0FFF  2FC5               	goto	l1681
  2190  1000                     __end_of_Lcd_Write_String:	
  2191                           
  2192                           	psect	text5
  2193  00FD                     __ptext5:	
  2194 ;; *************** function _Lcd_Set_Cursor *****************
  2195 ;; Defined at:
  2196 ;;		line 47 in file "pic16f87xa.c"
  2197 ;; Parameters:    Size  Location     Type
  2198 ;;  a               1    wreg     unsigned char 
  2199 ;;  b               1    4[COMMON] unsigned char 
  2200 ;; Auto vars:     Size  Location     Type
  2201 ;;  a               1    7[COMMON] unsigned char 
  2202 ;;  temp            1   10[COMMON] unsigned char 
  2203 ;;  y               1    9[COMMON] unsigned char 
  2204 ;;  z               1    8[COMMON] unsigned char 
  2205 ;; Return value:  Size  Location     Type
  2206 ;;                  1    wreg      void 
  2207 ;; Registers used:
  2208 ;;		wreg, status,2, status,0, pclath, cstack
  2209 ;; Tracked objects:
  2210 ;;		On entry : 0/0
  2211 ;;		On exit  : 0/0
  2212 ;;		Unchanged: 0/0
  2213 ;; Data sizes:     COMMON   BANK0   BANK1   BANK3   BANK2
  2214 ;;      Params:         1       0       0       0       0
  2215 ;;      Locals:         4       0       0       0       0
  2216 ;;      Temps:          2       0       0       0       0
  2217 ;;      Totals:         7       0       0       0       0
  2218 ;;Total ram usage:        7 bytes
  2219 ;; Hardware stack levels used:    1
  2220 ;; Hardware stack levels required when called:    2
  2221 ;; This function calls:
  2222 ;;		_Lcd_Cmd
  2223 ;; This function is called by:
  2224 ;;		_main
  2225 ;; This function uses a non-reentrant model
  2226 ;;
  2227                           
  2228                           
  2229                           ;psect for function _Lcd_Set_Cursor
  2230  00FD                     _Lcd_Set_Cursor:	
  2231                           
  2232                           ;incstack = 0
  2233                           ; Regs used in _Lcd_Set_Cursor: [wreg+status,2+status,0+pclath+cstack]
  2234                           ;Lcd_Set_Cursor@a stored from wreg
  2235  00FD  00F7               	movwf	Lcd_Set_Cursor@a
  2236                           
  2237                           ;pic16f87xa.c: 49: char temp,z,y;
  2238                           ;pic16f87xa.c: 50: if(a == 1)
  2239  00FE  0377               	decf	Lcd_Set_Cursor@a,w
  2240  00FF  1D03               	btfss	3,2
  2241  0100  2922               	goto	l1665
  2242                           
  2243                           ;pic16f87xa.c: 51: {
  2244                           ;pic16f87xa.c: 52: temp = 0x80 + b - 1;
  2245  0101  0874               	movf	Lcd_Set_Cursor@b,w
  2246  0102  3E7F               	addlw	127
  2247  0103  00F5               	movwf	??_Lcd_Set_Cursor
  2248  0104  0875               	movf	??_Lcd_Set_Cursor,w
  2249  0105  00FA               	movwf	Lcd_Set_Cursor@temp
  2250                           
  2251                           ;pic16f87xa.c: 53: z = temp>>4;
  2252  0106  087A               	movf	Lcd_Set_Cursor@temp,w
  2253  0107  00F5               	movwf	??_Lcd_Set_Cursor
  2254  0108  3004               	movlw	4
  2255  0109                     u985:	
  2256  0109  1003               	clrc
  2257  010A  0CF5               	rrf	??_Lcd_Set_Cursor,f
  2258  010B  3EFF               	addlw	-1
  2259  010C  1D03               	skipz
  2260  010D  2909               	goto	u985
  2261  010E  0875               	movf	??_Lcd_Set_Cursor,w
  2262  010F  00F6               	movwf	??_Lcd_Set_Cursor+1
  2263  0110  0876               	movf	??_Lcd_Set_Cursor+1,w
  2264  0111  00F8               	movwf	Lcd_Set_Cursor@z
  2265                           
  2266                           ;pic16f87xa.c: 54: y = temp & 0x0F;
  2267  0112  087A               	movf	Lcd_Set_Cursor@temp,w
  2268  0113  390F               	andlw	15
  2269  0114  00F5               	movwf	??_Lcd_Set_Cursor
  2270  0115  0875               	movf	??_Lcd_Set_Cursor,w
  2271  0116  00F9               	movwf	Lcd_Set_Cursor@y
  2272                           
  2273                           ;pic16f87xa.c: 55: Lcd_Cmd(z);
  2274  0117  0878               	movf	Lcd_Set_Cursor@z,w
  2275  0118  120A  158A  26D6  120A  118A  	fcall	_Lcd_Cmd
  2276                           
  2277                           ;pic16f87xa.c: 56: Lcd_Cmd(y);
  2278  011D  0879               	movf	Lcd_Set_Cursor@y,w
  2279  011E  120A  158A  26D6   	fcall	_Lcd_Cmd
  2280                           
  2281                           ;pic16f87xa.c: 57: }
  2282  0121  0008               	return
  2283  0122                     l1665:	
  2284                           
  2285                           ;pic16f87xa.c: 58: else if(a == 2)
  2286  0122  3002               	movlw	2
  2287  0123  0677               	xorwf	Lcd_Set_Cursor@a,w
  2288  0124  1D03               	btfss	3,2
  2289  0125  0008               	return
  2290                           
  2291                           ;pic16f87xa.c: 59: {
  2292                           ;pic16f87xa.c: 60: temp = 0xC0 + b - 1;
  2293  0126  0874               	movf	Lcd_Set_Cursor@b,w
  2294  0127  3EBF               	addlw	191
  2295  0128  00F5               	movwf	??_Lcd_Set_Cursor
  2296  0129  0875               	movf	??_Lcd_Set_Cursor,w
  2297  012A  00FA               	movwf	Lcd_Set_Cursor@temp
  2298                           
  2299                           ;pic16f87xa.c: 61: z = temp>>4;
  2300  012B  087A               	movf	Lcd_Set_Cursor@temp,w
  2301  012C  00F5               	movwf	??_Lcd_Set_Cursor
  2302  012D  3004               	movlw	4
  2303  012E                     u1005:	
  2304  012E  1003               	clrc
  2305  012F  0CF5               	rrf	??_Lcd_Set_Cursor,f
  2306  0130  3EFF               	addlw	-1
  2307  0131  1D03               	skipz
  2308  0132  292E               	goto	u1005
  2309  0133  0875               	movf	??_Lcd_Set_Cursor,w
  2310  0134  00F6               	movwf	??_Lcd_Set_Cursor+1
  2311  0135  0876               	movf	??_Lcd_Set_Cursor+1,w
  2312  0136  00F8               	movwf	Lcd_Set_Cursor@z
  2313                           
  2314                           ;pic16f87xa.c: 62: y = temp & 0x0F;
  2315  0137  087A               	movf	Lcd_Set_Cursor@temp,w
  2316  0138  390F               	andlw	15
  2317  0139  00F5               	movwf	??_Lcd_Set_Cursor
  2318  013A  0875               	movf	??_Lcd_Set_Cursor,w
  2319  013B  00F9               	movwf	Lcd_Set_Cursor@y
  2320                           
  2321                           ;pic16f87xa.c: 63: Lcd_Cmd(z);
  2322  013C  0878               	movf	Lcd_Set_Cursor@z,w
  2323  013D  120A  158A  26D6  120A  118A  	fcall	_Lcd_Cmd
  2324                           
  2325                           ;pic16f87xa.c: 64: Lcd_Cmd(y);
  2326  0142  0879               	movf	Lcd_Set_Cursor@y,w
  2327  0143  120A  158A  26D6   	fcall	_Lcd_Cmd
  2328  0146  0008               	return
  2329  0147                     __end_of_Lcd_Set_Cursor:	
  2330                           
  2331                           	psect	text6
  2332  0282                     __ptext6:	
  2333 ;; *************** function _GPS_Send3 *****************
  2334 ;; Defined at:
  2335 ;;		line 458 in file "pic16f87xa.c"
  2336 ;; Parameters:    Size  Location     Type
  2337 ;;		None
  2338 ;; Auto vars:     Size  Location     Type
  2339 ;;		None
  2340 ;; Return value:  Size  Location     Type
  2341 ;;                  1    wreg      void 
  2342 ;; Registers used:
  2343 ;;		wreg, fsr0l, fsr0h, status,2, status,0, btemp+1, pclath, cstack
  2344 ;; Tracked objects:
  2345 ;;		On entry : 0/0
  2346 ;;		On exit  : 0/0
  2347 ;;		Unchanged: 0/0
  2348 ;; Data sizes:     COMMON   BANK0   BANK1   BANK3   BANK2
  2349 ;;      Params:         0       0       0       0       0
  2350 ;;      Locals:         0       0       0       0       0
  2351 ;;      Temps:          1       0       0       0       0
  2352 ;;      Totals:         1       0       0       0       0
  2353 ;;Total ram usage:        1 bytes
  2354 ;; Hardware stack levels used:    1
  2355 ;; Hardware stack levels required when called:    1
  2356 ;; This function calls:
  2357 ;;		_UART3_Init
  2358 ;;		_UART3_Read
  2359 ;; This function is called by:
  2360 ;;		_main
  2361 ;; This function uses a non-reentrant model
  2362 ;;
  2363                           
  2364                           
  2365                           ;psect for function _GPS_Send3
  2366  0282                     _GPS_Send3:	
  2367                           
  2368                           ;pic16f87xa.c: 461: UART3_Init();
  2369                           
  2370                           ;incstack = 0
  2371                           ; Regs used in _GPS_Send3: [wreg-fsr0h+status,2+status,0+btemp+1+pclath+cstack]
  2372  0282  120A  158A  2684  120A  118A  	fcall	_UART3_Init
  2373                           
  2374                           ;pic16f87xa.c: 464: while(gps_flag == 0)
  2375  0287  1283               	bcf	3,5	;RP0=0, select bank0
  2376  0288  1303               	bcf	3,6	;RP1=0, select bank0
  2377  0289  0869               	movf	_gps_flag,w
  2378  028A  046A               	iorwf	_gps_flag+1,w
  2379  028B  1D03               	btfss	3,2
  2380  028C  0008               	return
  2381  028D                     l1861:	
  2382                           ;pic16f87xa.c: 465: {
  2383                           ;pic16f87xa.c: 466: t1:
  2384                           
  2385                           
  2386                           ;pic16f87xa.c: 467: rgps = UART3_Read();
  2387  028D  120A  118A  2079  120A  118A  	fcall	_UART3_Read
  2388  0292  00F4               	movwf	??_GPS_Send3
  2389  0293  0874               	movf	??_GPS_Send3,w
  2390  0294  1283               	bcf	3,5	;RP0=0, select bank0
  2391  0295  1303               	bcf	3,6	;RP1=0, select bank0
  2392  0296  00EB               	movwf	_rgps
  2393                           
  2394                           ;pic16f87xa.c: 469: if(rgps == '$')
  2395  0297  3024               	movlw	36
  2396  0298  066B               	xorwf	_rgps,w
  2397  0299  1D03               	btfss	3,2
  2398  029A  2A8D               	goto	l1861
  2399  029B                     l1865:	
  2400                           ;pic16f87xa.c: 470: {
  2401                           ;pic16f87xa.c: 471: t2:
  2402                           
  2403                           
  2404                           ;pic16f87xa.c: 472: rgps = UART3_Read();
  2405  029B  120A  118A  2079  120A  118A  	fcall	_UART3_Read
  2406  02A0  00F4               	movwf	??_GPS_Send3
  2407  02A1  0874               	movf	??_GPS_Send3,w
  2408  02A2  1283               	bcf	3,5	;RP0=0, select bank0
  2409  02A3  1303               	bcf	3,6	;RP1=0, select bank0
  2410  02A4  00EB               	movwf	_rgps
  2411                           
  2412                           ;pic16f87xa.c: 473: if(rgps == 'G')
  2413  02A5  3047               	movlw	71
  2414  02A6  066B               	xorwf	_rgps,w
  2415  02A7  1D03               	btfss	3,2
  2416  02A8  2A9B               	goto	l1865
  2417  02A9                     l1869:	
  2418                           ;pic16f87xa.c: 474: {
  2419                           ;pic16f87xa.c: 475: t3:
  2420                           
  2421                           
  2422                           ;pic16f87xa.c: 476: rgps = UART3_Read();
  2423  02A9  120A  118A  2079  120A  118A  	fcall	_UART3_Read
  2424  02AE  00F4               	movwf	??_GPS_Send3
  2425  02AF  0874               	movf	??_GPS_Send3,w
  2426  02B0  1283               	bcf	3,5	;RP0=0, select bank0
  2427  02B1  1303               	bcf	3,6	;RP1=0, select bank0
  2428  02B2  00EB               	movwf	_rgps
  2429                           
  2430                           ;pic16f87xa.c: 477: if(rgps == 'P')
  2431  02B3  3050               	movlw	80
  2432  02B4  066B               	xorwf	_rgps,w
  2433  02B5  1D03               	btfss	3,2
  2434  02B6  2AA9               	goto	l1869
  2435  02B7                     l1873:	
  2436                           ;pic16f87xa.c: 478: {
  2437                           ;pic16f87xa.c: 479: t4:
  2438                           
  2439                           
  2440                           ;pic16f87xa.c: 480: rgps = UART3_Read();
  2441  02B7  120A  118A  2079  120A  118A  	fcall	_UART3_Read
  2442  02BC  00F4               	movwf	??_GPS_Send3
  2443  02BD  0874               	movf	??_GPS_Send3,w
  2444  02BE  1283               	bcf	3,5	;RP0=0, select bank0
  2445  02BF  1303               	bcf	3,6	;RP1=0, select bank0
  2446  02C0  00EB               	movwf	_rgps
  2447                           
  2448                           ;pic16f87xa.c: 481: if(rgps == 'G')
  2449  02C1  3047               	movlw	71
  2450  02C2  066B               	xorwf	_rgps,w
  2451  02C3  1D03               	btfss	3,2
  2452  02C4  2AB7               	goto	l1873
  2453  02C5                     l1877:	
  2454                           ;pic16f87xa.c: 482: {
  2455                           ;pic16f87xa.c: 483: t5:
  2456                           
  2457                           
  2458                           ;pic16f87xa.c: 484: rgps = UART3_Read();
  2459  02C5  120A  118A  2079  120A  118A  	fcall	_UART3_Read
  2460  02CA  00F4               	movwf	??_GPS_Send3
  2461  02CB  0874               	movf	??_GPS_Send3,w
  2462  02CC  1283               	bcf	3,5	;RP0=0, select bank0
  2463  02CD  1303               	bcf	3,6	;RP1=0, select bank0
  2464  02CE  00EB               	movwf	_rgps
  2465                           
  2466                           ;pic16f87xa.c: 485: if(rgps == 'L')
  2467  02CF  304C               	movlw	76
  2468  02D0  066B               	xorwf	_rgps,w
  2469  02D1  1D03               	btfss	3,2
  2470  02D2  2AC5               	goto	l1877
  2471  02D3                     l1881:	
  2472                           ;pic16f87xa.c: 486: {
  2473                           ;pic16f87xa.c: 487: t6:
  2474                           
  2475                           
  2476                           ;pic16f87xa.c: 488: rgps = UART3_Read();
  2477  02D3  120A  118A  2079  120A  118A  	fcall	_UART3_Read
  2478  02D8  00F4               	movwf	??_GPS_Send3
  2479  02D9  0874               	movf	??_GPS_Send3,w
  2480  02DA  1283               	bcf	3,5	;RP0=0, select bank0
  2481  02DB  1303               	bcf	3,6	;RP1=0, select bank0
  2482  02DC  00EB               	movwf	_rgps
  2483                           
  2484                           ;pic16f87xa.c: 489: if(rgps == 'L')
  2485  02DD  304C               	movlw	76
  2486  02DE  066B               	xorwf	_rgps,w
  2487  02DF  1D03               	btfss	3,2
  2488  02E0  2AD3               	goto	l1881
  2489  02E1                     l1885:	
  2490                           ;pic16f87xa.c: 490: {
  2491                           ;pic16f87xa.c: 491: t7:
  2492                           
  2493                           
  2494                           ;pic16f87xa.c: 492: rgps = UART3_Read();
  2495  02E1  120A  118A  2079  120A  118A  	fcall	_UART3_Read
  2496  02E6  00F4               	movwf	??_GPS_Send3
  2497  02E7  0874               	movf	??_GPS_Send3,w
  2498  02E8  1283               	bcf	3,5	;RP0=0, select bank0
  2499  02E9  1303               	bcf	3,6	;RP1=0, select bank0
  2500  02EA  00EB               	movwf	_rgps
  2501                           
  2502                           ;pic16f87xa.c: 493: if(rgps == ',')
  2503  02EB  302C               	movlw	44
  2504  02EC  066B               	xorwf	_rgps,w
  2505  02ED  1D03               	btfss	3,2
  2506  02EE  2AE1               	goto	l1885
  2507                           
  2508                           ;pic16f87xa.c: 494: {
  2509                           ;pic16f87xa.c: 495: rgps = UART3_Read();
  2510  02EF  120A  118A  2079  120A  118A  	fcall	_UART3_Read
  2511  02F4  00F4               	movwf	??_GPS_Send3
  2512  02F5  0874               	movf	??_GPS_Send3,w
  2513  02F6  1283               	bcf	3,5	;RP0=0, select bank0
  2514  02F7  1303               	bcf	3,6	;RP1=0, select bank0
  2515  02F8  00EB               	movwf	_rgps
  2516                           
  2517                           ;pic16f87xa.c: 496: gps_flag = 1;
  2518  02F9  3001               	movlw	1
  2519  02FA  00E9               	movwf	_gps_flag
  2520  02FB  3000               	movlw	0
  2521  02FC  00EA               	movwf	_gps_flag+1
  2522                           
  2523                           ;pic16f87xa.c: 497: for(j = 0 ; j < 25 ; j++)
  2524  02FD  01E7               	clrf	_j
  2525  02FE  01E8               	clrf	_j+1
  2526  02FF  0868               	movf	_j+1,w
  2527  0300  3A80               	xorlw	128
  2528  0301  00FF               	movwf	127
  2529  0302  3080               	movlw	128
  2530  0303  027F               	subwf	127,w
  2531  0304  1D03               	skipz
  2532  0305  2B08               	goto	u1265
  2533  0306  3019               	movlw	25
  2534  0307  0267               	subwf	_j,w
  2535  0308                     u1265:	
  2536  0308  1803               	btfsc	3,0
  2537  0309  2B2D               	goto	l1907
  2538  030A                     l1899:	
  2539                           
  2540                           ;pic16f87xa.c: 498: {
  2541                           ;pic16f87xa.c: 499: rgps = UART3_Read();
  2542  030A  120A  118A  2079  120A  118A  	fcall	_UART3_Read
  2543  030F  00F4               	movwf	??_GPS_Send3
  2544  0310  0874               	movf	??_GPS_Send3,w
  2545  0311  1283               	bcf	3,5	;RP0=0, select bank0
  2546  0312  1303               	bcf	3,6	;RP1=0, select bank0
  2547  0313  00EB               	movwf	_rgps
  2548                           
  2549                           ;pic16f87xa.c: 500: locate.gprs_location[j] = rgps;
  2550  0314  086B               	movf	_rgps,w
  2551  0315  00F4               	movwf	??_GPS_Send3
  2552  0316  0867               	movf	_j,w
  2553  0317  3E3D               	addlw	(low (_locate| (0+256)))& (0+255)
  2554  0318  0084               	movwf	4
  2555  0319  0874               	movf	??_GPS_Send3,w
  2556  031A  1783               	bsf	3,7	;select IRP bank2
  2557  031B  0080               	movwf	0
  2558  031C  3001               	movlw	1
  2559  031D  07E7               	addwf	_j,f
  2560  031E  1803               	skipnc
  2561  031F  0AE8               	incf	_j+1,f
  2562  0320  3000               	movlw	0
  2563  0321  07E8               	addwf	_j+1,f
  2564  0322  0868               	movf	_j+1,w
  2565  0323  3A80               	xorlw	128
  2566  0324  00FF               	movwf	127
  2567  0325  3080               	movlw	128
  2568  0326  027F               	subwf	127,w
  2569  0327  1D03               	skipz
  2570  0328  2B2B               	goto	u1275
  2571  0329  3019               	movlw	25
  2572  032A  0267               	subwf	_j,w
  2573  032B                     u1275:	
  2574  032B  1C03               	skipc
  2575  032C  2B0A               	goto	l1899
  2576  032D                     l1907:	
  2577                           
  2578                           ;pic16f87xa.c: 501: }
  2579                           ;pic16f87xa.c: 502: locate.gprs_location[23] = '\0';
  2580  032D  1283               	bcf	3,5	;RP0=0, select bank2
  2581  032E  1703               	bsf	3,6	;RP1=1, select bank2
  2582  032F  01D4               	clrf	(_locate^(0+256)+23)
  2583                           
  2584                           ;pic16f87xa.c: 504: break;
  2585  0330  0008               	return
  2586  0331                     __end_of_GPS_Send3:	
  2587                           ;pic16f87xa.c: 539: else
  2588                           ;pic16f87xa.c: 540: {
  2589                           ;pic16f87xa.c: 541: goto t1;
  2590                           
  2591                           ;pic16f87xa.c: 536: }
  2592                           ;pic16f87xa.c: 537: }
  2593                           
  2594                           ;pic16f87xa.c: 533: else
  2595                           ;pic16f87xa.c: 534: {
  2596                           ;pic16f87xa.c: 535: goto t2;
  2597                           
  2598                           ;pic16f87xa.c: 531: }
  2599                           ;pic16f87xa.c: 532: }
  2600                           
  2601                           ;pic16f87xa.c: 528: else
  2602                           ;pic16f87xa.c: 529: {
  2603                           ;pic16f87xa.c: 530: goto t3;
  2604                           
  2605                           ;pic16f87xa.c: 526: }
  2606                           ;pic16f87xa.c: 527: }
  2607                           
  2608                           ;pic16f87xa.c: 523: else
  2609                           ;pic16f87xa.c: 524: {
  2610                           ;pic16f87xa.c: 525: goto t4;
  2611                           
  2612                           ;pic16f87xa.c: 521: }
  2613                           ;pic16f87xa.c: 522: }
  2614                           
  2615                           ;pic16f87xa.c: 518: else
  2616                           ;pic16f87xa.c: 519: {
  2617                           ;pic16f87xa.c: 520: goto t5;
  2618                           
  2619                           ;pic16f87xa.c: 516: }
  2620                           ;pic16f87xa.c: 517: }
  2621                           
  2622                           ;pic16f87xa.c: 513: else
  2623                           ;pic16f87xa.c: 514: {
  2624                           ;pic16f87xa.c: 515: goto t6;
  2625                           
  2626                           ;pic16f87xa.c: 511: }
  2627                           ;pic16f87xa.c: 512: }
  2628                           
  2629                           ;pic16f87xa.c: 508: else
  2630                           ;pic16f87xa.c: 509: {
  2631                           ;pic16f87xa.c: 510: goto t7;
  2632                           
  2633                           ;pic16f87xa.c: 507: }
  2634                           
  2635                           
  2636                           	psect	text7
  2637  0079                     __ptext7:	
  2638 ;; *************** function _UART3_Read *****************
  2639 ;; Defined at:
  2640 ;;		line 320 in file "pic16f87xa.c"
  2641 ;; Parameters:    Size  Location     Type
  2642 ;;		None
  2643 ;; Auto vars:     Size  Location     Type
  2644 ;;  i               1    3[COMMON] unsigned char 
  2645 ;;  DataValue3      1    2[COMMON] unsigned char 
  2646 ;; Return value:  Size  Location     Type
  2647 ;;                  1    wreg      unsigned char 
  2648 ;; Registers used:
  2649 ;;		wreg, status,2, status,0
  2650 ;; Tracked objects:
  2651 ;;		On entry : 0/0
  2652 ;;		On exit  : 0/0
  2653 ;;		Unchanged: 0/0
  2654 ;; Data sizes:     COMMON   BANK0   BANK1   BANK3   BANK2
  2655 ;;      Params:         0       0       0       0       0
  2656 ;;      Locals:         2       0       0       0       0
  2657 ;;      Temps:          2       0       0       0       0
  2658 ;;      Totals:         4       0       0       0       0
  2659 ;;Total ram usage:        4 bytes
  2660 ;; Hardware stack levels used:    1
  2661 ;; This function calls:
  2662 ;;		Nothing
  2663 ;; This function is called by:
  2664 ;;		_GPS_Send3
  2665 ;; This function uses a non-reentrant model
  2666 ;;
  2667                           
  2668                           
  2669                           ;psect for function _UART3_Read
  2670  0079                     _UART3_Read:	
  2671                           
  2672                           ;pic16f87xa.c: 325: unsigned char DataValue3 = 0;
  2673                           
  2674                           ;incstack = 0
  2675                           ; Regs used in _UART3_Read: [wreg+status,2+status,0]
  2676  0079  01F2               	clrf	UART3_Read@DataValue3
  2677  007A                     l235:	
  2678                           ;pic16f87xa.c: 328: while(RB3==1);
  2679                           
  2680  007A  1283               	bcf	3,5	;RP0=0, select bank0
  2681  007B  1303               	bcf	3,6	;RP1=0, select bank0
  2682  007C  1986               	btfsc	6,3	;volatile
  2683  007D  287A               	goto	l235
  2684                           
  2685                           ;pic16f87xa.c: 330: _delay((unsigned long)((98)*(20000000/4000000.0)));
  2686  007E  30A3               	movlw	163
  2687  007F  00F0               	movwf	??_UART3_Read
  2688  0080                     u1567:	
  2689  0080  0BF0               	decfsz	??_UART3_Read,f
  2690  0081  2880               	goto	u1567
  2691                           
  2692                           ;pic16f87xa.c: 331: _delay((unsigned long)((98/2)*(20000000/4000000.0)));
  2693  0082  3051               	movlw	81
  2694  0083  00F0               	movwf	??_UART3_Read
  2695  0084                     u1577:	
  2696  0084  0BF0               	decfsz	??_UART3_Read,f
  2697  0085  2884               	goto	u1577
  2698  0086  0000               	nop
  2699                           
  2700                           ;pic16f87xa.c: 333: for ( unsigned char i = 0; i < 8; i++ )
  2701  0087  01F3               	clrf	UART3_Read@i
  2702  0088  3008               	movlw	8
  2703  0089  0273               	subwf	UART3_Read@i,w
  2704  008A  1803               	btfsc	3,0
  2705  008B  28A9               	goto	l239
  2706  008C                     l238:	
  2707                           
  2708                           ;pic16f87xa.c: 334: {
  2709                           ;pic16f87xa.c: 335: if ( RB3 == 1 )
  2710  008C  1283               	bcf	3,5	;RP0=0, select bank0
  2711  008D  1303               	bcf	3,6	;RP1=0, select bank0
  2712  008E  1D86               	btfss	6,3	;volatile
  2713  008F  289D               	goto	l1627
  2714                           
  2715                           ;pic16f87xa.c: 336: {
  2716                           ;pic16f87xa.c: 337: DataValue3 += (1<<i);
  2717  0090  3001               	movlw	1
  2718  0091  00F0               	movwf	??_UART3_Read
  2719  0092  0A73               	incf	UART3_Read@i,w
  2720  0093  2896               	goto	u924
  2721  0094                     u925:	
  2722  0094  1003               	clrc
  2723  0095  0DF0               	rlf	??_UART3_Read,f
  2724  0096                     u924:	
  2725  0096  3EFF               	addlw	-1
  2726  0097  1D03               	skipz
  2727  0098  2894               	goto	u925
  2728  0099  0870               	movf	??_UART3_Read,w
  2729  009A  00F1               	movwf	??_UART3_Read+1
  2730  009B  0871               	movf	??_UART3_Read+1,w
  2731  009C  07F2               	addwf	UART3_Read@DataValue3,f
  2732  009D                     l1627:	
  2733                           
  2734                           ;pic16f87xa.c: 338: }
  2735                           ;pic16f87xa.c: 340: _delay((unsigned long)((98)*(20000000/4000000.0)));
  2736  009D  30A3               	movlw	163
  2737  009E  00F0               	movwf	??_UART3_Read
  2738  009F                     u1587:	
  2739  009F  0BF0               	decfsz	??_UART3_Read,f
  2740  00A0  289F               	goto	u1587
  2741  00A1  3001               	movlw	1
  2742  00A2  00F0               	movwf	??_UART3_Read
  2743  00A3  0870               	movf	??_UART3_Read,w
  2744  00A4  07F3               	addwf	UART3_Read@i,f
  2745  00A5  3008               	movlw	8
  2746  00A6  0273               	subwf	UART3_Read@i,w
  2747  00A7  1C03               	skipc
  2748  00A8  288C               	goto	l238
  2749  00A9                     l239:	
  2750                           
  2751                           ;pic16f87xa.c: 341: }
  2752                           ;pic16f87xa.c: 344: if ( RB3 == 1 )
  2753  00A9  1283               	bcf	3,5	;RP0=0, select bank0
  2754  00AA  1303               	bcf	3,6	;RP1=0, select bank0
  2755  00AB  1D86               	btfss	6,3	;volatile
  2756  00AC  28B4               	goto	l1637
  2757                           
  2758                           ;pic16f87xa.c: 345: {
  2759                           ;pic16f87xa.c: 346: _delay((unsigned long)((98/2)*(20000000/4000000.0)));
  2760  00AD  3051               	movlw	81
  2761  00AE  00F0               	movwf	??_UART3_Read
  2762  00AF                     u1597:	
  2763  00AF  0BF0               	decfsz	??_UART3_Read,f
  2764  00B0  28AF               	goto	u1597
  2765  00B1  0000               	nop
  2766                           
  2767                           ;pic16f87xa.c: 347: return DataValue3;
  2768  00B2  0872               	movf	UART3_Read@DataValue3,w
  2769                           
  2770                           ;pic16f87xa.c: 348: }
  2771  00B3  0008               	return
  2772  00B4                     l1637:	
  2773                           
  2774                           ;pic16f87xa.c: 349: else
  2775                           ;pic16f87xa.c: 350: {
  2776                           ;pic16f87xa.c: 351: _delay((unsigned long)((98/2)*(20000000/4000000.0)));
  2777  00B4  3051               	movlw	81
  2778  00B5  00F0               	movwf	??_UART3_Read
  2779  00B6                     u1607:	
  2780  00B6  0BF0               	decfsz	??_UART3_Read,f
  2781  00B7  28B6               	goto	u1607
  2782  00B8  0000               	nop
  2783                           
  2784                           ;pic16f87xa.c: 352: return 0x000;
  2785  00B9  3000               	movlw	0
  2786  00BA  0008               	return
  2787  00BB                     __end_of_UART3_Read:	
  2788                           
  2789                           	psect	text8
  2790  0E84                     __ptext8:	
  2791 ;; *************** function _UART3_Init *****************
  2792 ;; Defined at:
  2793 ;;		line 269 in file "pic16f87xa.c"
  2794 ;; Parameters:    Size  Location     Type
  2795 ;;		None
  2796 ;; Auto vars:     Size  Location     Type
  2797 ;;		None
  2798 ;; Return value:  Size  Location     Type
  2799 ;;                  1    wreg      void 
  2800 ;; Registers used:
  2801 ;;		None
  2802 ;; Tracked objects:
  2803 ;;		On entry : 0/0
  2804 ;;		On exit  : 0/0
  2805 ;;		Unchanged: 0/0
  2806 ;; Data sizes:     COMMON   BANK0   BANK1   BANK3   BANK2
  2807 ;;      Params:         0       0       0       0       0
  2808 ;;      Locals:         0       0       0       0       0
  2809 ;;      Temps:          0       0       0       0       0
  2810 ;;      Totals:         0       0       0       0       0
  2811 ;;Total ram usage:        0 bytes
  2812 ;; Hardware stack levels used:    1
  2813 ;; This function calls:
  2814 ;;		Nothing
  2815 ;; This function is called by:
  2816 ;;		_GPS_Send3
  2817 ;;		_main
  2818 ;; This function uses a non-reentrant model
  2819 ;;
  2820                           
  2821                           
  2822                           ;psect for function _UART3_Init
  2823  0E84                     _UART3_Init:	
  2824                           
  2825                           ;pic16f87xa.c: 278: RB4 = 1;
  2826                           
  2827                           ;incstack = 0
  2828                           ; Regs used in _UART3_Init: []
  2829  0E84  1283               	bcf	3,5	;RP0=0, select bank0
  2830  0E85  1303               	bcf	3,6	;RP1=0, select bank0
  2831  0E86  1606               	bsf	6,4	;volatile
  2832                           
  2833                           ;pic16f87xa.c: 280: TRISB3 = 1;
  2834  0E87  1683               	bsf	3,5	;RP0=1, select bank1
  2835  0E88  1303               	bcf	3,6	;RP1=0, select bank1
  2836  0E89  1586               	bsf	6,3	;volatile
  2837                           
  2838                           ;pic16f87xa.c: 281: TRISB4 = 0;
  2839  0E8A  1206               	bcf	6,4	;volatile
  2840  0E8B  0008               	return
  2841  0E8C                     __end_of_UART3_Init:	
  2842                           
  2843                           	psect	text9
  2844  0609                     __ptext9:	
  2845 ;; *************** function _GPRS1_Update *****************
  2846 ;; Defined at:
  2847 ;;		line 588 in file "pic16f87xa.c"
  2848 ;; Parameters:    Size  Location     Type
  2849 ;;  r               1    wreg     PTR unsigned char 
  2850 ;;		 -> a1(12), 
  2851 ;;  n               1    4[COMMON] PTR unsigned char 
  2852 ;;		 -> b1(5), 
  2853 ;;  l               1    5[COMMON] PTR unsigned char 
  2854 ;;		 -> locate(31), 
  2855 ;; Auto vars:     Size  Location     Type
  2856 ;;  r               1    9[COMMON] PTR unsigned char 
  2857 ;;		 -> a1(12), 
  2858 ;; Return value:  Size  Location     Type
  2859 ;;                  1    wreg      void 
  2860 ;; Registers used:
  2861 ;;		wreg, fsr0l, fsr0h, status,2, status,0, btemp+1, pclath, cstack
  2862 ;; Tracked objects:
  2863 ;;		On entry : 0/0
  2864 ;;		On exit  : 0/0
  2865 ;;		Unchanged: 0/0
  2866 ;; Data sizes:     COMMON   BANK0   BANK1   BANK3   BANK2
  2867 ;;      Params:         2       0       0       0       0
  2868 ;;      Locals:         1       0       0       0       0
  2869 ;;      Temps:          3       0       0       0       0
  2870 ;;      Totals:         6       0       0       0       0
  2871 ;;Total ram usage:        6 bytes
  2872 ;; Hardware stack levels used:    1
  2873 ;; Hardware stack levels required when called:    2
  2874 ;; This function calls:
  2875 ;;		_UART1_Send
  2876 ;;		_UART1_Write
  2877 ;; This function is called by:
  2878 ;;		_main
  2879 ;; This function uses a non-reentrant model
  2880 ;;
  2881                           
  2882                           
  2883                           ;psect for function _GPRS1_Update
  2884  0609                     _GPRS1_Update:	
  2885                           
  2886                           ;incstack = 0
  2887                           ; Regs used in _GPRS1_Update: [wreg-fsr0h+status,2+status,0+btemp+1+pclath+cstack]
  2888                           ;GPRS1_Update@r stored from wreg
  2889  0609  00F9               	movwf	GPRS1_Update@r
  2890                           
  2891                           ;pic16f87xa.c: 591: UART1_Send(AT);
  2892  060A  304A               	movlw	(low (_AT| 0))& (0+255)
  2893  060B  00F2               	movwf	UART1_Send@s
  2894  060C  3000               	movlw	0
  2895  060D  00F3               	movwf	UART1_Send@s+1
  2896  060E  120A  158A  26F1  120A  118A  	fcall	_UART1_Send
  2897                           
  2898                           ;pic16f87xa.c: 592: UART1_Write(0X0D);
  2899  0613  300D               	movlw	13
  2900  0614  120A  158A  269C  120A  118A  	fcall	_UART1_Write
  2901                           
  2902                           ;pic16f87xa.c: 593: _delay((unsigned long)((1000)*(20000000/4000.0)));
  2903  0619  301A               	movlw	26
  2904  061A  00F8               	movwf	??_GPRS1_Update+2
  2905  061B  305E               	movlw	94
  2906  061C  00F7               	movwf	??_GPRS1_Update+1
  2907  061D  306E               	movlw	110
  2908  061E  00F6               	movwf	??_GPRS1_Update
  2909  061F                     u1617:	
  2910  061F  0BF6               	decfsz	??_GPRS1_Update,f
  2911  0620  2E1F               	goto	u1617
  2912  0621  0BF7               	decfsz	??_GPRS1_Update+1,f
  2913  0622  2E1F               	goto	u1617
  2914  0623  0BF8               	decfsz	??_GPRS1_Update+2,f
  2915  0624  2E1F               	goto	u1617
  2916  0625  0000               	nop
  2917                           
  2918                           ;pic16f87xa.c: 595: UART1_Send(gprs_value5_ip);
  2919  0626  3038               	movlw	(low (_gprs_value5_ip| 0))& (0+255)
  2920  0627  00F2               	movwf	UART1_Send@s
  2921  0628  3000               	movlw	0
  2922  0629  00F3               	movwf	UART1_Send@s+1
  2923  062A  120A  158A  26F1  120A  118A  	fcall	_UART1_Send
  2924                           
  2925                           ;pic16f87xa.c: 596: UART1_Write(0X0D);
  2926  062F  300D               	movlw	13
  2927  0630  120A  158A  269C  120A  118A  	fcall	_UART1_Write
  2928                           
  2929                           ;pic16f87xa.c: 597: _delay((unsigned long)((2000)*(20000000/4000.0)));
  2930  0635  3033               	movlw	51
  2931  0636  00F8               	movwf	??_GPRS1_Update+2
  2932  0637  30BB               	movlw	187
  2933  0638  00F7               	movwf	??_GPRS1_Update+1
  2934  0639  30DF               	movlw	223
  2935  063A  00F6               	movwf	??_GPRS1_Update
  2936  063B                     u1627:	
  2937  063B  0BF6               	decfsz	??_GPRS1_Update,f
  2938  063C  2E3B               	goto	u1627
  2939  063D  0BF7               	decfsz	??_GPRS1_Update+1,f
  2940  063E  2E3B               	goto	u1627
  2941  063F  0BF8               	decfsz	??_GPRS1_Update+2,f
  2942  0640  2E3B               	goto	u1627
  2943  0641  2E42               	nop2
  2944                           
  2945                           ;pic16f87xa.c: 598: _delay((unsigned long)((2000)*(20000000/4000.0)));
  2946  0642  3033               	movlw	51
  2947  0643  00F8               	movwf	??_GPRS1_Update+2
  2948  0644  30BB               	movlw	187
  2949  0645  00F7               	movwf	??_GPRS1_Update+1
  2950  0646  30DF               	movlw	223
  2951  0647  00F6               	movwf	??_GPRS1_Update
  2952  0648                     u1637:	
  2953  0648  0BF6               	decfsz	??_GPRS1_Update,f
  2954  0649  2E48               	goto	u1637
  2955  064A  0BF7               	decfsz	??_GPRS1_Update+1,f
  2956  064B  2E48               	goto	u1637
  2957  064C  0BF8               	decfsz	??_GPRS1_Update+2,f
  2958  064D  2E48               	goto	u1637
  2959  064E  2E4F               	nop2
  2960                           
  2961                           ;pic16f87xa.c: 599: UART1_Send(gprs_web1);
  2962  064F  30D1               	movlw	(low (_gprs_web1| 0))& (0+255)
  2963  0650  00F2               	movwf	UART1_Send@s
  2964  0651  3000               	movlw	0
  2965  0652  00F3               	movwf	UART1_Send@s+1
  2966  0653  120A  158A  26F1  120A  118A  	fcall	_UART1_Send
  2967                           
  2968                           ;pic16f87xa.c: 600: UART1_Write(0X0D);
  2969  0658  300D               	movlw	13
  2970  0659  120A  158A  269C  120A  118A  	fcall	_UART1_Write
  2971                           
  2972                           ;pic16f87xa.c: 601: _delay((unsigned long)((2000)*(20000000/4000.0)));
  2973  065E  3033               	movlw	51
  2974  065F  00F8               	movwf	??_GPRS1_Update+2
  2975  0660  30BB               	movlw	187
  2976  0661  00F7               	movwf	??_GPRS1_Update+1
  2977  0662  30DF               	movlw	223
  2978  0663  00F6               	movwf	??_GPRS1_Update
  2979  0664                     u1647:	
  2980  0664  0BF6               	decfsz	??_GPRS1_Update,f
  2981  0665  2E64               	goto	u1647
  2982  0666  0BF7               	decfsz	??_GPRS1_Update+1,f
  2983  0667  2E64               	goto	u1647
  2984  0668  0BF8               	decfsz	??_GPRS1_Update+2,f
  2985  0669  2E64               	goto	u1647
  2986  066A  2E6B               	nop2
  2987                           
  2988                           ;pic16f87xa.c: 602: _delay((unsigned long)((2000)*(20000000/4000.0)));
  2989  066B  3033               	movlw	51
  2990  066C  00F8               	movwf	??_GPRS1_Update+2
  2991  066D  30BB               	movlw	187
  2992  066E  00F7               	movwf	??_GPRS1_Update+1
  2993  066F  30DF               	movlw	223
  2994  0670  00F6               	movwf	??_GPRS1_Update
  2995  0671                     u1657:	
  2996  0671  0BF6               	decfsz	??_GPRS1_Update,f
  2997  0672  2E71               	goto	u1657
  2998  0673  0BF7               	decfsz	??_GPRS1_Update+1,f
  2999  0674  2E71               	goto	u1657
  3000  0675  0BF8               	decfsz	??_GPRS1_Update+2,f
  3001  0676  2E71               	goto	u1657
  3002  0677  2E78               	nop2
  3003                           
  3004                           ;pic16f87xa.c: 603: UART1_Send("AT+HTTPPARA=\"CID\",1");
  3005  0678  30B7               	movlw	low (STR_9| (0+32768))
  3006  0679  00F2               	movwf	UART1_Send@s
  3007  067A  3088               	movlw	high (STR_9| (0+32768))
  3008  067B  00F3               	movwf	UART1_Send@s+1
  3009  067C  120A  158A  26F1  120A  118A  	fcall	_UART1_Send
  3010                           
  3011                           ;pic16f87xa.c: 604: UART1_Write(0X0D);
  3012  0681  300D               	movlw	13
  3013  0682  120A  158A  269C  120A  118A  	fcall	_UART1_Write
  3014                           
  3015                           ;pic16f87xa.c: 605: _delay((unsigned long)((2000)*(20000000/4000.0)));
  3016  0687  3033               	movlw	51
  3017  0688  00F8               	movwf	??_GPRS1_Update+2
  3018  0689  30BB               	movlw	187
  3019  068A  00F7               	movwf	??_GPRS1_Update+1
  3020  068B  30DF               	movlw	223
  3021  068C  00F6               	movwf	??_GPRS1_Update
  3022  068D                     u1667:	
  3023  068D  0BF6               	decfsz	??_GPRS1_Update,f
  3024  068E  2E8D               	goto	u1667
  3025  068F  0BF7               	decfsz	??_GPRS1_Update+1,f
  3026  0690  2E8D               	goto	u1667
  3027  0691  0BF8               	decfsz	??_GPRS1_Update+2,f
  3028  0692  2E8D               	goto	u1667
  3029  0693  2E94               	nop2
  3030                           
  3031                           ;pic16f87xa.c: 606: _delay((unsigned long)((2000)*(20000000/4000.0)));
  3032  0694  3033               	movlw	51
  3033  0695  00F8               	movwf	??_GPRS1_Update+2
  3034  0696  30BB               	movlw	187
  3035  0697  00F7               	movwf	??_GPRS1_Update+1
  3036  0698  30DF               	movlw	223
  3037  0699  00F6               	movwf	??_GPRS1_Update
  3038  069A                     u1677:	
  3039  069A  0BF6               	decfsz	??_GPRS1_Update,f
  3040  069B  2E9A               	goto	u1677
  3041  069C  0BF7               	decfsz	??_GPRS1_Update+1,f
  3042  069D  2E9A               	goto	u1677
  3043  069E  0BF8               	decfsz	??_GPRS1_Update+2,f
  3044  069F  2E9A               	goto	u1677
  3045  06A0  2EA1               	nop2
  3046                           
  3047                           ;pic16f87xa.c: 607: _delay((unsigned long)((1000)*(20000000/4000.0)));
  3048  06A1  301A               	movlw	26
  3049  06A2  00F8               	movwf	??_GPRS1_Update+2
  3050  06A3  305E               	movlw	94
  3051  06A4  00F7               	movwf	??_GPRS1_Update+1
  3052  06A5  306E               	movlw	110
  3053  06A6  00F6               	movwf	??_GPRS1_Update
  3054  06A7                     u1687:	
  3055  06A7  0BF6               	decfsz	??_GPRS1_Update,f
  3056  06A8  2EA7               	goto	u1687
  3057  06A9  0BF7               	decfsz	??_GPRS1_Update+1,f
  3058  06AA  2EA7               	goto	u1687
  3059  06AB  0BF8               	decfsz	??_GPRS1_Update+2,f
  3060  06AC  2EA7               	goto	u1687
  3061  06AD  0000               	nop
  3062                           
  3063                           ;pic16f87xa.c: 608: UART1_Send("AT+HTTPPARA=\"URL\",\"http://loadshedding-001-site1.1tem
      +                          purl.com/tvm1.php?value1=587&value2=");
  3064  06AE  3000               	movlw	low (STR_10| (0+32768))
  3065  06AF  00F2               	movwf	UART1_Send@s
  3066  06B0  3088               	movlw	high (STR_10| (0+32768))
  3067  06B1  00F3               	movwf	UART1_Send@s+1
  3068  06B2  120A  158A  26F1  120A  118A  	fcall	_UART1_Send
  3069                           
  3070                           ;pic16f87xa.c: 609: UART1_Send(r);
  3071  06B7  0879               	movf	GPRS1_Update@r,w
  3072  06B8  00F2               	movwf	UART1_Send@s
  3073  06B9  3000               	movlw	0
  3074  06BA  00F3               	movwf	UART1_Send@s+1
  3075  06BB  120A  158A  26F1  120A  118A  	fcall	_UART1_Send
  3076                           
  3077                           ;pic16f87xa.c: 610: UART1_Send("&value3=");
  3078  06C0  304E               	movlw	low (STR_11| (0+32768))
  3079  06C1  00F2               	movwf	UART1_Send@s
  3080  06C2  3089               	movlw	high (STR_11| (0+32768))
  3081  06C3  00F3               	movwf	UART1_Send@s+1
  3082  06C4  120A  158A  26F1  120A  118A  	fcall	_UART1_Send
  3083                           
  3084                           ;pic16f87xa.c: 611: UART1_Send(n);
  3085  06C9  0874               	movf	GPRS1_Update@n,w
  3086  06CA  00F2               	movwf	UART1_Send@s
  3087  06CB  3000               	movlw	0
  3088  06CC  00F3               	movwf	UART1_Send@s+1
  3089  06CD  120A  158A  26F1  120A  118A  	fcall	_UART1_Send
  3090                           
  3091                           ;pic16f87xa.c: 612: UART1_Send("&value4=");
  3092  06D2  3057               	movlw	low (STR_12| (0+32768))
  3093  06D3  00F2               	movwf	UART1_Send@s
  3094  06D4  3089               	movlw	high (STR_12| (0+32768))
  3095  06D5  00F3               	movwf	UART1_Send@s+1
  3096  06D6  120A  158A  26F1  120A  118A  	fcall	_UART1_Send
  3097                           
  3098                           ;pic16f87xa.c: 613: UART1_Send(l);
  3099  06DB  0875               	movf	GPRS1_Update@l,w
  3100  06DC  00F2               	movwf	UART1_Send@s
  3101  06DD  3001               	movlw	1
  3102  06DE  00F3               	movwf	UART1_Send@s+1
  3103  06DF  120A  158A  26F1  120A  118A  	fcall	_UART1_Send
  3104                           
  3105                           ;pic16f87xa.c: 614: UART1_Send("\"\r\n");
  3106  06E4  3060               	movlw	low (STR_13| (0+32768))
  3107  06E5  00F2               	movwf	UART1_Send@s
  3108  06E6  3089               	movlw	high (STR_13| (0+32768))
  3109  06E7  00F3               	movwf	UART1_Send@s+1
  3110  06E8  120A  158A  26F1  120A  118A  	fcall	_UART1_Send
  3111                           
  3112                           ;pic16f87xa.c: 616: UART1_Write(0X0D);
  3113  06ED  300D               	movlw	13
  3114  06EE  120A  158A  269C  120A  118A  	fcall	_UART1_Write
  3115                           
  3116                           ;pic16f87xa.c: 617: _delay((unsigned long)((2000)*(20000000/4000.0)));
  3117  06F3  3033               	movlw	51
  3118  06F4  00F8               	movwf	??_GPRS1_Update+2
  3119  06F5  30BB               	movlw	187
  3120  06F6  00F7               	movwf	??_GPRS1_Update+1
  3121  06F7  30DF               	movlw	223
  3122  06F8  00F6               	movwf	??_GPRS1_Update
  3123  06F9                     u1697:	
  3124  06F9  0BF6               	decfsz	??_GPRS1_Update,f
  3125  06FA  2EF9               	goto	u1697
  3126  06FB  0BF7               	decfsz	??_GPRS1_Update+1,f
  3127  06FC  2EF9               	goto	u1697
  3128  06FD  0BF8               	decfsz	??_GPRS1_Update+2,f
  3129  06FE  2EF9               	goto	u1697
  3130  06FF  2F00               	nop2
  3131                           
  3132                           ;pic16f87xa.c: 618: _delay((unsigned long)((2000)*(20000000/4000.0)));
  3133  0700  3033               	movlw	51
  3134  0701  00F8               	movwf	??_GPRS1_Update+2
  3135  0702  30BB               	movlw	187
  3136  0703  00F7               	movwf	??_GPRS1_Update+1
  3137  0704  30DF               	movlw	223
  3138  0705  00F6               	movwf	??_GPRS1_Update
  3139  0706                     u1707:	
  3140  0706  0BF6               	decfsz	??_GPRS1_Update,f
  3141  0707  2F06               	goto	u1707
  3142  0708  0BF7               	decfsz	??_GPRS1_Update+1,f
  3143  0709  2F06               	goto	u1707
  3144  070A  0BF8               	decfsz	??_GPRS1_Update+2,f
  3145  070B  2F06               	goto	u1707
  3146  070C  2F0D               	nop2
  3147                           
  3148                           ;pic16f87xa.c: 619: _delay((unsigned long)((1000)*(20000000/4000.0)));
  3149  070D  301A               	movlw	26
  3150  070E  00F8               	movwf	??_GPRS1_Update+2
  3151  070F  305E               	movlw	94
  3152  0710  00F7               	movwf	??_GPRS1_Update+1
  3153  0711  306E               	movlw	110
  3154  0712  00F6               	movwf	??_GPRS1_Update
  3155  0713                     u1717:	
  3156  0713  0BF6               	decfsz	??_GPRS1_Update,f
  3157  0714  2F13               	goto	u1717
  3158  0715  0BF7               	decfsz	??_GPRS1_Update+1,f
  3159  0716  2F13               	goto	u1717
  3160  0717  0BF8               	decfsz	??_GPRS1_Update+2,f
  3161  0718  2F13               	goto	u1717
  3162  0719  0000               	nop
  3163                           
  3164                           ;pic16f87xa.c: 620: _delay((unsigned long)((1000)*(20000000/4000.0)));
  3165  071A  301A               	movlw	26
  3166  071B  00F8               	movwf	??_GPRS1_Update+2
  3167  071C  305E               	movlw	94
  3168  071D  00F7               	movwf	??_GPRS1_Update+1
  3169  071E  306E               	movlw	110
  3170  071F  00F6               	movwf	??_GPRS1_Update
  3171  0720                     u1727:	
  3172  0720  0BF6               	decfsz	??_GPRS1_Update,f
  3173  0721  2F20               	goto	u1727
  3174  0722  0BF7               	decfsz	??_GPRS1_Update+1,f
  3175  0723  2F20               	goto	u1727
  3176  0724  0BF8               	decfsz	??_GPRS1_Update+2,f
  3177  0725  2F20               	goto	u1727
  3178  0726  0000               	nop
  3179                           
  3180                           ;pic16f87xa.c: 621: UART1_Send("AT+HTTPPARA=\"CID\",1");
  3181  0727  30B7               	movlw	low (STR_9| (0+32768))
  3182  0728  00F2               	movwf	UART1_Send@s
  3183  0729  3088               	movlw	high (STR_9| (0+32768))
  3184  072A  00F3               	movwf	UART1_Send@s+1
  3185  072B  120A  158A  26F1  120A  118A  	fcall	_UART1_Send
  3186                           
  3187                           ;pic16f87xa.c: 622: UART1_Write(0X0D);
  3188  0730  300D               	movlw	13
  3189  0731  120A  158A  269C  120A  118A  	fcall	_UART1_Write
  3190                           
  3191                           ;pic16f87xa.c: 624: _delay((unsigned long)((2000)*(20000000/4000.0)));
  3192  0736  3033               	movlw	51
  3193  0737  00F8               	movwf	??_GPRS1_Update+2
  3194  0738  30BB               	movlw	187
  3195  0739  00F7               	movwf	??_GPRS1_Update+1
  3196  073A  30DF               	movlw	223
  3197  073B  00F6               	movwf	??_GPRS1_Update
  3198  073C                     u1737:	
  3199  073C  0BF6               	decfsz	??_GPRS1_Update,f
  3200  073D  2F3C               	goto	u1737
  3201  073E  0BF7               	decfsz	??_GPRS1_Update+1,f
  3202  073F  2F3C               	goto	u1737
  3203  0740  0BF8               	decfsz	??_GPRS1_Update+2,f
  3204  0741  2F3C               	goto	u1737
  3205  0742  2F43               	nop2
  3206                           
  3207                           ;pic16f87xa.c: 625: _delay((unsigned long)((1000)*(20000000/4000.0)));
  3208  0743  301A               	movlw	26
  3209  0744  00F8               	movwf	??_GPRS1_Update+2
  3210  0745  305E               	movlw	94
  3211  0746  00F7               	movwf	??_GPRS1_Update+1
  3212  0747  306E               	movlw	110
  3213  0748  00F6               	movwf	??_GPRS1_Update
  3214  0749                     u1747:	
  3215  0749  0BF6               	decfsz	??_GPRS1_Update,f
  3216  074A  2F49               	goto	u1747
  3217  074B  0BF7               	decfsz	??_GPRS1_Update+1,f
  3218  074C  2F49               	goto	u1747
  3219  074D  0BF8               	decfsz	??_GPRS1_Update+2,f
  3220  074E  2F49               	goto	u1747
  3221  074F  0000               	nop
  3222                           
  3223                           ;pic16f87xa.c: 626: UART1_Send(gprs_web5);
  3224  0750  302D               	movlw	(low (_gprs_web5| (0+256)))& (0+255)
  3225  0751  00F2               	movwf	UART1_Send@s
  3226  0752  3001               	movlw	1
  3227  0753  00F3               	movwf	UART1_Send@s+1
  3228  0754  120A  158A  26F1  120A  118A  	fcall	_UART1_Send
  3229                           
  3230                           ;pic16f87xa.c: 627: UART1_Write(0X0D);
  3231  0759  300D               	movlw	13
  3232  075A  120A  158A  269C  120A  118A  	fcall	_UART1_Write
  3233                           
  3234                           ;pic16f87xa.c: 628: _delay((unsigned long)((2000)*(20000000/4000.0)));
  3235  075F  3033               	movlw	51
  3236  0760  00F8               	movwf	??_GPRS1_Update+2
  3237  0761  30BB               	movlw	187
  3238  0762  00F7               	movwf	??_GPRS1_Update+1
  3239  0763  30DF               	movlw	223
  3240  0764  00F6               	movwf	??_GPRS1_Update
  3241  0765                     u1757:	
  3242  0765  0BF6               	decfsz	??_GPRS1_Update,f
  3243  0766  2F65               	goto	u1757
  3244  0767  0BF7               	decfsz	??_GPRS1_Update+1,f
  3245  0768  2F65               	goto	u1757
  3246  0769  0BF8               	decfsz	??_GPRS1_Update+2,f
  3247  076A  2F65               	goto	u1757
  3248  076B  2F6C               	nop2
  3249                           
  3250                           ;pic16f87xa.c: 629: _delay((unsigned long)((2000)*(20000000/4000.0)));
  3251  076C  3033               	movlw	51
  3252  076D  00F8               	movwf	??_GPRS1_Update+2
  3253  076E  30BB               	movlw	187
  3254  076F  00F7               	movwf	??_GPRS1_Update+1
  3255  0770  30DF               	movlw	223
  3256  0771  00F6               	movwf	??_GPRS1_Update
  3257  0772                     u1767:	
  3258  0772  0BF6               	decfsz	??_GPRS1_Update,f
  3259  0773  2F72               	goto	u1767
  3260  0774  0BF7               	decfsz	??_GPRS1_Update+1,f
  3261  0775  2F72               	goto	u1767
  3262  0776  0BF8               	decfsz	??_GPRS1_Update+2,f
  3263  0777  2F72               	goto	u1767
  3264  0778  2F79               	nop2
  3265                           
  3266                           ;pic16f87xa.c: 630: _delay((unsigned long)((2000)*(20000000/4000.0)));
  3267  0779  3033               	movlw	51
  3268  077A  00F8               	movwf	??_GPRS1_Update+2
  3269  077B  30BB               	movlw	187
  3270  077C  00F7               	movwf	??_GPRS1_Update+1
  3271  077D  30DF               	movlw	223
  3272  077E  00F6               	movwf	??_GPRS1_Update
  3273  077F                     u1777:	
  3274  077F  0BF6               	decfsz	??_GPRS1_Update,f
  3275  0780  2F7F               	goto	u1777
  3276  0781  0BF7               	decfsz	??_GPRS1_Update+1,f
  3277  0782  2F7F               	goto	u1777
  3278  0783  0BF8               	decfsz	??_GPRS1_Update+2,f
  3279  0784  2F7F               	goto	u1777
  3280  0785  2F86               	nop2
  3281                           
  3282                           ;pic16f87xa.c: 631: UART1_Send(gprs_web6);
  3283  0786  30C5               	movlw	(low (_gprs_web6| 0))& (0+255)
  3284  0787  00F2               	movwf	UART1_Send@s
  3285  0788  3000               	movlw	0
  3286  0789  00F3               	movwf	UART1_Send@s+1
  3287  078A  120A  158A  26F1  120A  118A  	fcall	_UART1_Send
  3288                           
  3289                           ;pic16f87xa.c: 632: UART1_Write(0X0D);
  3290  078F  300D               	movlw	13
  3291  0790  120A  158A  269C  120A  118A  	fcall	_UART1_Write
  3292                           
  3293                           ;pic16f87xa.c: 633: _delay((unsigned long)((2000)*(20000000/4000.0)));
  3294  0795  3033               	movlw	51
  3295  0796  00F8               	movwf	??_GPRS1_Update+2
  3296  0797  30BB               	movlw	187
  3297  0798  00F7               	movwf	??_GPRS1_Update+1
  3298  0799  30DF               	movlw	223
  3299  079A  00F6               	movwf	??_GPRS1_Update
  3300  079B                     u1787:	
  3301  079B  0BF6               	decfsz	??_GPRS1_Update,f
  3302  079C  2F9B               	goto	u1787
  3303  079D  0BF7               	decfsz	??_GPRS1_Update+1,f
  3304  079E  2F9B               	goto	u1787
  3305  079F  0BF8               	decfsz	??_GPRS1_Update+2,f
  3306  07A0  2F9B               	goto	u1787
  3307  07A1  2FA2               	nop2
  3308                           
  3309                           ;pic16f87xa.c: 634: _delay((unsigned long)((2000)*(20000000/4000.0)));
  3310  07A2  3033               	movlw	51
  3311  07A3  00F8               	movwf	??_GPRS1_Update+2
  3312  07A4  30BB               	movlw	187
  3313  07A5  00F7               	movwf	??_GPRS1_Update+1
  3314  07A6  30DF               	movlw	223
  3315  07A7  00F6               	movwf	??_GPRS1_Update
  3316  07A8                     u1797:	
  3317  07A8  0BF6               	decfsz	??_GPRS1_Update,f
  3318  07A9  2FA8               	goto	u1797
  3319  07AA  0BF7               	decfsz	??_GPRS1_Update+1,f
  3320  07AB  2FA8               	goto	u1797
  3321  07AC  0BF8               	decfsz	??_GPRS1_Update+2,f
  3322  07AD  2FA8               	goto	u1797
  3323  07AE  2FAF               	nop2
  3324  07AF  0008               	return
  3325  07B0                     __end_of_GPRS1_Update:	
  3326                           
  3327                           	psect	text10
  3328  0463                     __ptext10:	
  3329 ;; *************** function _GPRS1_Init *****************
  3330 ;; Defined at:
  3331 ;;		line 358 in file "pic16f87xa.c"
  3332 ;; Parameters:    Size  Location     Type
  3333 ;;		None
  3334 ;; Auto vars:     Size  Location     Type
  3335 ;;  c               2   20[BANK0 ] unsigned short 
  3336 ;;  gprs_data       8    6[BANK0 ] unsigned char [8]
  3337 ;;  response        3   14[BANK0 ] unsigned char [3]
  3338 ;;  value           2   17[BANK0 ] int 
  3339 ;;  gprs_value      1   19[BANK0 ] unsigned char 
  3340 ;; Return value:  Size  Location     Type
  3341 ;;                  1    wreg      void 
  3342 ;; Registers used:
  3343 ;;		wreg, fsr0l, fsr0h, status,2, status,0, btemp+1, pclath, cstack
  3344 ;; Tracked objects:
  3345 ;;		On entry : 0/0
  3346 ;;		On exit  : 0/0
  3347 ;;		Unchanged: 0/0
  3348 ;; Data sizes:     COMMON   BANK0   BANK1   BANK3   BANK2
  3349 ;;      Params:         0       0       0       0       0
  3350 ;;      Locals:         0      16       0       0       0
  3351 ;;      Temps:          3       0       0       0       0
  3352 ;;      Totals:         3      16       0       0       0
  3353 ;;Total ram usage:       19 bytes
  3354 ;; Hardware stack levels used:    1
  3355 ;; Hardware stack levels required when called:    3
  3356 ;; This function calls:
  3357 ;;		_Lcd_Clear
  3358 ;;		_Lcd_Init
  3359 ;;		_Lcd_String
  3360 ;;		_UART1_Data_Ready
  3361 ;;		_UART1_Send
  3362 ;;		_UART1_Write
  3363 ;;		_strcmp
  3364 ;; This function is called by:
  3365 ;;		_main
  3366 ;; This function uses a non-reentrant model
  3367 ;;
  3368                           
  3369                           
  3370                           ;psect for function _GPRS1_Init
  3371  0463                     _GPRS1_Init:	
  3372                           
  3373                           ;pic16f87xa.c: 361: int value=0;
  3374                           
  3375                           ;incstack = 0
  3376                           ; Regs used in _GPRS1_Init: [wreg-fsr0h+status,2+status,0+btemp+1+pclath+cstack]
  3377  0463  1283               	bcf	3,5	;RP0=0, select bank0
  3378  0464  1303               	bcf	3,6	;RP1=0, select bank0
  3379  0465  01DE               	clrf	GPRS1_Init@value
  3380  0466  01DF               	clrf	GPRS1_Init@value+1
  3381                           
  3382                           ;pic16f87xa.c: 362: char gprs_value,gprs_data[8],response[]="OK";
  3383  0467  0832               	movf	GPRS1_Init@F1338,w
  3384  0468  00DB               	movwf	GPRS1_Init@response
  3385  0469  0833               	movf	GPRS1_Init@F1338+1,w
  3386  046A  00DC               	movwf	GPRS1_Init@response+1
  3387  046B  0834               	movf	GPRS1_Init@F1338+2,w
  3388  046C  00DD               	movwf	GPRS1_Init@response+2
  3389                           
  3390                           ;pic16f87xa.c: 363: Lcd_Init();
  3391  046D  120A  118A  2147  120A  118A  	fcall	_Lcd_Init
  3392                           
  3393                           ;pic16f87xa.c: 365: Lcd_Clear();
  3394                           
  3395                           ;pic16f87xa.c: 364: gprs:
  3396  0472  120A  118A  2004  120A  118A  	fcall	_Lcd_Clear
  3397                           
  3398                           ;pic16f87xa.c: 366: Lcd_String(1,1,"GPRS configuring");
  3399  0477  01F5               	clrf	Lcd_String@b
  3400  0478  0AF5               	incf	Lcd_String@b,f
  3401  0479  30CB               	movlw	low (STR_1| (0+32768))
  3402  047A  00F6               	movwf	Lcd_String@c
  3403  047B  3088               	movlw	high (STR_1| (0+32768))
  3404  047C  00F7               	movwf	Lcd_String@c+1
  3405  047D  3001               	movlw	1
  3406  047E  120A  118A  2203  120A  118A  	fcall	_Lcd_String
  3407                           
  3408                           ;pic16f87xa.c: 367: Lcd_String(2,1,"Please wait...");
  3409  0483  01F5               	clrf	Lcd_String@b
  3410  0484  0AF5               	incf	Lcd_String@b,f
  3411  0485  30FC               	movlw	low (STR_2| (0+32768))
  3412  0486  00F6               	movwf	Lcd_String@c
  3413  0487  3088               	movlw	high (STR_2| (0+32768))
  3414  0488  00F7               	movwf	Lcd_String@c+1
  3415  0489  3002               	movlw	2
  3416  048A  120A  118A  2203  120A  118A  	fcall	_Lcd_String
  3417                           
  3418                           ;pic16f87xa.c: 368: _delay((unsigned long)((2000)*(20000000/4000.0)));
  3419  048F  3033               	movlw	51
  3420  0490  00FD               	movwf	??_GPRS1_Init+2
  3421  0491  30BB               	movlw	187
  3422  0492  00FC               	movwf	??_GPRS1_Init+1
  3423  0493  30DF               	movlw	223
  3424  0494  00FB               	movwf	??_GPRS1_Init
  3425  0495                     u1807:	
  3426  0495  0BFB               	decfsz	??_GPRS1_Init,f
  3427  0496  2C95               	goto	u1807
  3428  0497  0BFC               	decfsz	??_GPRS1_Init+1,f
  3429  0498  2C95               	goto	u1807
  3430  0499  0BFD               	decfsz	??_GPRS1_Init+2,f
  3431  049A  2C95               	goto	u1807
  3432  049B  2C9C               	nop2
  3433                           
  3434                           ;pic16f87xa.c: 369: UART1_Send(AT);
  3435  049C  304A               	movlw	(low (_AT| 0))& (0+255)
  3436  049D  00F2               	movwf	UART1_Send@s
  3437  049E  3000               	movlw	0
  3438  049F  00F3               	movwf	UART1_Send@s+1
  3439  04A0  120A  158A  26F1  120A  118A  	fcall	_UART1_Send
  3440                           
  3441                           ;pic16f87xa.c: 370: UART1_Write(0X0D);
  3442  04A5  300D               	movlw	13
  3443  04A6  120A  158A  269C  120A  118A  	fcall	_UART1_Write
  3444                           
  3445                           ;pic16f87xa.c: 371: _delay((unsigned long)((1000)*(20000000/4000.0)));
  3446  04AB  301A               	movlw	26
  3447  04AC  00FD               	movwf	??_GPRS1_Init+2
  3448  04AD  305E               	movlw	94
  3449  04AE  00FC               	movwf	??_GPRS1_Init+1
  3450  04AF  306E               	movlw	110
  3451  04B0  00FB               	movwf	??_GPRS1_Init
  3452  04B1                     u1817:	
  3453  04B1  0BFB               	decfsz	??_GPRS1_Init,f
  3454  04B2  2CB1               	goto	u1817
  3455  04B3  0BFC               	decfsz	??_GPRS1_Init+1,f
  3456  04B4  2CB1               	goto	u1817
  3457  04B5  0BFD               	decfsz	??_GPRS1_Init+2,f
  3458  04B6  2CB1               	goto	u1817
  3459  04B7  0000               	nop
  3460                           
  3461                           ;pic16f87xa.c: 372: _delay((unsigned long)((1000)*(20000000/4000.0)));
  3462  04B8  301A               	movlw	26
  3463  04B9  00FD               	movwf	??_GPRS1_Init+2
  3464  04BA  305E               	movlw	94
  3465  04BB  00FC               	movwf	??_GPRS1_Init+1
  3466  04BC  306E               	movlw	110
  3467  04BD  00FB               	movwf	??_GPRS1_Init
  3468  04BE                     u1827:	
  3469  04BE  0BFB               	decfsz	??_GPRS1_Init,f
  3470  04BF  2CBE               	goto	u1827
  3471  04C0  0BFC               	decfsz	??_GPRS1_Init+1,f
  3472  04C1  2CBE               	goto	u1827
  3473  04C2  0BFD               	decfsz	??_GPRS1_Init+2,f
  3474  04C3  2CBE               	goto	u1827
  3475  04C4  0000               	nop
  3476                           
  3477                           ;pic16f87xa.c: 373: if(UART1_Data_Ready())
  3478  04C5  120A  158A  267E  120A  118A  	fcall	_UART1_Data_Ready
  3479  04CA  3A00               	xorlw	0
  3480  04CB  1903               	skipnz
  3481  04CC  0008               	return
  3482                           
  3483                           ;pic16f87xa.c: 374: {
  3484                           ;pic16f87xa.c: 375: for(unsigned short c = 0 ; c < 2 ; c++)
  3485  04CD  1283               	bcf	3,5	;RP0=0, select bank0
  3486  04CE  1303               	bcf	3,6	;RP1=0, select bank0
  3487  04CF  01E1               	clrf	GPRS1_Init@c
  3488  04D0  01E2               	clrf	GPRS1_Init@c+1
  3489  04D1  3000               	movlw	0
  3490  04D2  0262               	subwf	GPRS1_Init@c+1,w
  3491  04D3  3002               	movlw	2
  3492  04D4  1903               	skipnz
  3493  04D5  0261               	subwf	GPRS1_Init@c,w
  3494  04D6  1803               	btfsc	3,0
  3495  04D7  2CF3               	goto	l1769
  3496  04D8                     l252:	
  3497                           ;pic16f87xa.c: 376: {
  3498                           ;pic16f87xa.c: 377: while(!RCIF);
  3499                           
  3500  04D8  1E8C               	btfss	12,5	;volatile
  3501  04D9  2CD8               	goto	l252
  3502                           
  3503                           ;pic16f87xa.c: 378: gprs_value = RCREG;
  3504  04DA  081A               	movf	26,w	;volatile
  3505  04DB  00FB               	movwf	??_GPRS1_Init
  3506  04DC  087B               	movf	??_GPRS1_Init,w
  3507  04DD  00E0               	movwf	GPRS1_Init@gprs_value
  3508                           
  3509                           ;pic16f87xa.c: 379: gprs_data[c] = gprs_value;
  3510  04DE  0860               	movf	GPRS1_Init@gprs_value,w
  3511  04DF  00FB               	movwf	??_GPRS1_Init
  3512  04E0  0861               	movf	GPRS1_Init@c,w
  3513  04E1  3E53               	addlw	(low (GPRS1_Init@gprs_data| 0))& (0+255)
  3514  04E2  0084               	movwf	4
  3515  04E3  087B               	movf	??_GPRS1_Init,w
  3516  04E4  1383               	bcf	3,7	;select IRP bank0
  3517  04E5  0080               	movwf	0
  3518  04E6  3001               	movlw	1
  3519  04E7  07E1               	addwf	GPRS1_Init@c,f
  3520  04E8  1803               	skipnc
  3521  04E9  0AE2               	incf	GPRS1_Init@c+1,f
  3522  04EA  3000               	movlw	0
  3523  04EB  07E2               	addwf	GPRS1_Init@c+1,f
  3524  04EC  3000               	movlw	0
  3525  04ED  0262               	subwf	GPRS1_Init@c+1,w
  3526  04EE  3002               	movlw	2
  3527  04EF  1903               	skipnz
  3528  04F0  0261               	subwf	GPRS1_Init@c,w
  3529  04F1  1C03               	skipc
  3530  04F2  2CD8               	goto	l252
  3531  04F3                     l1769:	
  3532                           
  3533                           ;pic16f87xa.c: 380: }
  3534                           ;pic16f87xa.c: 381: gprs_data[2] = '\0';
  3535  04F3  01D5               	clrf	GPRS1_Init@gprs_data+2
  3536                           
  3537                           ;pic16f87xa.c: 382: value=strcmp(gprs_data,response);
  3538  04F4  305B               	movlw	(low (GPRS1_Init@response| 0))& (0+255)
  3539  04F5  00FB               	movwf	??_GPRS1_Init
  3540  04F6  087B               	movf	??_GPRS1_Init,w
  3541  04F7  00F0               	movwf	strcmp@s2
  3542  04F8  3053               	movlw	(low (GPRS1_Init@gprs_data| 0))& (0+255)
  3543  04F9  120A  158A  2737  120A  118A  	fcall	_strcmp
  3544  04FE  0871               	movf	?_strcmp+1,w
  3545  04FF  1283               	bcf	3,5	;RP0=0, select bank0
  3546  0500  1303               	bcf	3,6	;RP1=0, select bank0
  3547  0501  00DF               	movwf	GPRS1_Init@value+1
  3548  0502  0870               	movf	?_strcmp,w
  3549  0503  00DE               	movwf	GPRS1_Init@value
  3550                           
  3551                           ;pic16f87xa.c: 384: {
  3552                           ;pic16f87xa.c: 385: UART1_Send(AT);
  3553  0504  304A               	movlw	(low (_AT| 0))& (0+255)
  3554  0505  00F2               	movwf	UART1_Send@s
  3555  0506  3000               	movlw	0
  3556  0507  00F3               	movwf	UART1_Send@s+1
  3557  0508  120A  158A  26F1  120A  118A  	fcall	_UART1_Send
  3558                           
  3559                           ;pic16f87xa.c: 386: UART1_Write(0X0D);
  3560  050D  300D               	movlw	13
  3561  050E  120A  158A  269C  120A  118A  	fcall	_UART1_Write
  3562                           
  3563                           ;pic16f87xa.c: 387: _delay((unsigned long)((1000)*(20000000/4000.0)));
  3564  0513  301A               	movlw	26
  3565  0514  00FD               	movwf	??_GPRS1_Init+2
  3566  0515  305E               	movlw	94
  3567  0516  00FC               	movwf	??_GPRS1_Init+1
  3568  0517  306E               	movlw	110
  3569  0518  00FB               	movwf	??_GPRS1_Init
  3570  0519                     u1837:	
  3571  0519  0BFB               	decfsz	??_GPRS1_Init,f
  3572  051A  2D19               	goto	u1837
  3573  051B  0BFC               	decfsz	??_GPRS1_Init+1,f
  3574  051C  2D19               	goto	u1837
  3575  051D  0BFD               	decfsz	??_GPRS1_Init+2,f
  3576  051E  2D19               	goto	u1837
  3577  051F  0000               	nop
  3578                           
  3579                           ;pic16f87xa.c: 388: UART1_Send("AT+SAPBR=3,1,\"Contype\",\"GPRS\"");
  3580  0520  307E               	movlw	low (STR_3| (0+32768))
  3581  0521  00F2               	movwf	UART1_Send@s
  3582  0522  3088               	movlw	high (STR_3| (0+32768))
  3583  0523  00F3               	movwf	UART1_Send@s+1
  3584  0524  120A  158A  26F1  120A  118A  	fcall	_UART1_Send
  3585                           
  3586                           ;pic16f87xa.c: 389: UART1_Write(0X0D);
  3587  0529  300D               	movlw	13
  3588  052A  120A  158A  269C  120A  118A  	fcall	_UART1_Write
  3589                           
  3590                           ;pic16f87xa.c: 390: _delay((unsigned long)((1000)*(20000000/4000.0)));
  3591  052F  301A               	movlw	26
  3592  0530  00FD               	movwf	??_GPRS1_Init+2
  3593  0531  305E               	movlw	94
  3594  0532  00FC               	movwf	??_GPRS1_Init+1
  3595  0533  306E               	movlw	110
  3596  0534  00FB               	movwf	??_GPRS1_Init
  3597  0535                     u1847:	
  3598  0535  0BFB               	decfsz	??_GPRS1_Init,f
  3599  0536  2D35               	goto	u1847
  3600  0537  0BFC               	decfsz	??_GPRS1_Init+1,f
  3601  0538  2D35               	goto	u1847
  3602  0539  0BFD               	decfsz	??_GPRS1_Init+2,f
  3603  053A  2D35               	goto	u1847
  3604  053B  0000               	nop
  3605                           
  3606                           ;pic16f87xa.c: 391: _delay((unsigned long)((1000)*(20000000/4000.0)));
  3607  053C  301A               	movlw	26
  3608  053D  00FD               	movwf	??_GPRS1_Init+2
  3609  053E  305E               	movlw	94
  3610  053F  00FC               	movwf	??_GPRS1_Init+1
  3611  0540  306E               	movlw	110
  3612  0541  00FB               	movwf	??_GPRS1_Init
  3613  0542                     u1857:	
  3614  0542  0BFB               	decfsz	??_GPRS1_Init,f
  3615  0543  2D42               	goto	u1857
  3616  0544  0BFC               	decfsz	??_GPRS1_Init+1,f
  3617  0545  2D42               	goto	u1857
  3618  0546  0BFD               	decfsz	??_GPRS1_Init+2,f
  3619  0547  2D42               	goto	u1857
  3620  0548  0000               	nop
  3621                           
  3622                           ;pic16f87xa.c: 392: UART1_Send("AT+SAPBR=3,1,\"APN\",\"CMNET\"");
  3623  0549  309C               	movlw	low (STR_4| (0+32768))
  3624  054A  00F2               	movwf	UART1_Send@s
  3625  054B  3088               	movlw	high (STR_4| (0+32768))
  3626  054C  00F3               	movwf	UART1_Send@s+1
  3627  054D  120A  158A  26F1  120A  118A  	fcall	_UART1_Send
  3628                           
  3629                           ;pic16f87xa.c: 393: UART1_Write(0X0D);
  3630  0552  300D               	movlw	13
  3631  0553  120A  158A  269C  120A  118A  	fcall	_UART1_Write
  3632                           
  3633                           ;pic16f87xa.c: 394: _delay((unsigned long)((1000)*(20000000/4000.0)));
  3634  0558  301A               	movlw	26
  3635  0559  00FD               	movwf	??_GPRS1_Init+2
  3636  055A  305E               	movlw	94
  3637  055B  00FC               	movwf	??_GPRS1_Init+1
  3638  055C  306E               	movlw	110
  3639  055D  00FB               	movwf	??_GPRS1_Init
  3640  055E                     u1867:	
  3641  055E  0BFB               	decfsz	??_GPRS1_Init,f
  3642  055F  2D5E               	goto	u1867
  3643  0560  0BFC               	decfsz	??_GPRS1_Init+1,f
  3644  0561  2D5E               	goto	u1867
  3645  0562  0BFD               	decfsz	??_GPRS1_Init+2,f
  3646  0563  2D5E               	goto	u1867
  3647  0564  0000               	nop
  3648                           
  3649                           ;pic16f87xa.c: 395: _delay((unsigned long)((1000)*(20000000/4000.0)));
  3650  0565  301A               	movlw	26
  3651  0566  00FD               	movwf	??_GPRS1_Init+2
  3652  0567  305E               	movlw	94
  3653  0568  00FC               	movwf	??_GPRS1_Init+1
  3654  0569  306E               	movlw	110
  3655  056A  00FB               	movwf	??_GPRS1_Init
  3656  056B                     u1877:	
  3657  056B  0BFB               	decfsz	??_GPRS1_Init,f
  3658  056C  2D6B               	goto	u1877
  3659  056D  0BFC               	decfsz	??_GPRS1_Init+1,f
  3660  056E  2D6B               	goto	u1877
  3661  056F  0BFD               	decfsz	??_GPRS1_Init+2,f
  3662  0570  2D6B               	goto	u1877
  3663  0571  0000               	nop
  3664                           
  3665                           ;pic16f87xa.c: 396: UART1_Send("AT+SAPBR=3,1,\"APN\",\"airtelgprs.com\"");
  3666  0572  305A               	movlw	low (STR_5| (0+32768))
  3667  0573  00F2               	movwf	UART1_Send@s
  3668  0574  3088               	movlw	high (STR_5| (0+32768))
  3669  0575  00F3               	movwf	UART1_Send@s+1
  3670  0576  120A  158A  26F1  120A  118A  	fcall	_UART1_Send
  3671                           
  3672                           ;pic16f87xa.c: 397: UART1_Write(0X0D);
  3673  057B  300D               	movlw	13
  3674  057C  120A  158A  269C  120A  118A  	fcall	_UART1_Write
  3675                           
  3676                           ;pic16f87xa.c: 398: _delay((unsigned long)((1000)*(20000000/4000.0)));
  3677  0581  301A               	movlw	26
  3678  0582  00FD               	movwf	??_GPRS1_Init+2
  3679  0583  305E               	movlw	94
  3680  0584  00FC               	movwf	??_GPRS1_Init+1
  3681  0585  306E               	movlw	110
  3682  0586  00FB               	movwf	??_GPRS1_Init
  3683  0587                     u1887:	
  3684  0587  0BFB               	decfsz	??_GPRS1_Init,f
  3685  0588  2D87               	goto	u1887
  3686  0589  0BFC               	decfsz	??_GPRS1_Init+1,f
  3687  058A  2D87               	goto	u1887
  3688  058B  0BFD               	decfsz	??_GPRS1_Init+2,f
  3689  058C  2D87               	goto	u1887
  3690  058D  0000               	nop
  3691                           
  3692                           ;pic16f87xa.c: 399: _delay((unsigned long)((1000)*(20000000/4000.0)));
  3693  058E  301A               	movlw	26
  3694  058F  00FD               	movwf	??_GPRS1_Init+2
  3695  0590  305E               	movlw	94
  3696  0591  00FC               	movwf	??_GPRS1_Init+1
  3697  0592  306E               	movlw	110
  3698  0593  00FB               	movwf	??_GPRS1_Init
  3699  0594                     u1897:	
  3700  0594  0BFB               	decfsz	??_GPRS1_Init,f
  3701  0595  2D94               	goto	u1897
  3702  0596  0BFC               	decfsz	??_GPRS1_Init+1,f
  3703  0597  2D94               	goto	u1897
  3704  0598  0BFD               	decfsz	??_GPRS1_Init+2,f
  3705  0599  2D94               	goto	u1897
  3706  059A  0000               	nop
  3707                           
  3708                           ;pic16f87xa.c: 400: _delay((unsigned long)((1000)*(20000000/4000.0)));
  3709  059B  301A               	movlw	26
  3710  059C  00FD               	movwf	??_GPRS1_Init+2
  3711  059D  305E               	movlw	94
  3712  059E  00FC               	movwf	??_GPRS1_Init+1
  3713  059F  306E               	movlw	110
  3714  05A0  00FB               	movwf	??_GPRS1_Init
  3715  05A1                     u1907:	
  3716  05A1  0BFB               	decfsz	??_GPRS1_Init,f
  3717  05A2  2DA1               	goto	u1907
  3718  05A3  0BFC               	decfsz	??_GPRS1_Init+1,f
  3719  05A4  2DA1               	goto	u1907
  3720  05A5  0BFD               	decfsz	??_GPRS1_Init+2,f
  3721  05A6  2DA1               	goto	u1907
  3722  05A7  0000               	nop
  3723                           
  3724                           ;pic16f87xa.c: 401: UART1_Send(gprs_value4);
  3725  05A8  30AC               	movlw	(low (_gprs_value4| 0))& (0+255)
  3726  05A9  00F2               	movwf	UART1_Send@s
  3727  05AA  3000               	movlw	0
  3728  05AB  00F3               	movwf	UART1_Send@s+1
  3729  05AC  120A  158A  26F1  120A  118A  	fcall	_UART1_Send
  3730                           
  3731                           ;pic16f87xa.c: 402: UART1_Write(0X0D);
  3732  05B1  300D               	movlw	13
  3733  05B2  120A  158A  269C  120A  118A  	fcall	_UART1_Write
  3734                           
  3735                           ;pic16f87xa.c: 403: _delay((unsigned long)((1000)*(20000000/4000.0)));
  3736  05B7  301A               	movlw	26
  3737  05B8  00FD               	movwf	??_GPRS1_Init+2
  3738  05B9  305E               	movlw	94
  3739  05BA  00FC               	movwf	??_GPRS1_Init+1
  3740  05BB  306E               	movlw	110
  3741  05BC  00FB               	movwf	??_GPRS1_Init
  3742  05BD                     u1917:	
  3743  05BD  0BFB               	decfsz	??_GPRS1_Init,f
  3744  05BE  2DBD               	goto	u1917
  3745  05BF  0BFC               	decfsz	??_GPRS1_Init+1,f
  3746  05C0  2DBD               	goto	u1917
  3747  05C1  0BFD               	decfsz	??_GPRS1_Init+2,f
  3748  05C2  2DBD               	goto	u1917
  3749  05C3  0000               	nop
  3750                           
  3751                           ;pic16f87xa.c: 404: _delay((unsigned long)((1000)*(20000000/4000.0)));
  3752  05C4  301A               	movlw	26
  3753  05C5  00FD               	movwf	??_GPRS1_Init+2
  3754  05C6  305E               	movlw	94
  3755  05C7  00FC               	movwf	??_GPRS1_Init+1
  3756  05C8  306E               	movlw	110
  3757  05C9  00FB               	movwf	??_GPRS1_Init
  3758  05CA                     u1927:	
  3759  05CA  0BFB               	decfsz	??_GPRS1_Init,f
  3760  05CB  2DCA               	goto	u1927
  3761  05CC  0BFC               	decfsz	??_GPRS1_Init+1,f
  3762  05CD  2DCA               	goto	u1927
  3763  05CE  0BFD               	decfsz	??_GPRS1_Init+2,f
  3764  05CF  2DCA               	goto	u1927
  3765  05D0  0000               	nop
  3766                           
  3767                           ;pic16f87xa.c: 405: _delay((unsigned long)((1000)*(20000000/4000.0)));
  3768  05D1  301A               	movlw	26
  3769  05D2  00FD               	movwf	??_GPRS1_Init+2
  3770  05D3  305E               	movlw	94
  3771  05D4  00FC               	movwf	??_GPRS1_Init+1
  3772  05D5  306E               	movlw	110
  3773  05D6  00FB               	movwf	??_GPRS1_Init
  3774  05D7                     u1937:	
  3775  05D7  0BFB               	decfsz	??_GPRS1_Init,f
  3776  05D8  2DD7               	goto	u1937
  3777  05D9  0BFC               	decfsz	??_GPRS1_Init+1,f
  3778  05DA  2DD7               	goto	u1937
  3779  05DB  0BFD               	decfsz	??_GPRS1_Init+2,f
  3780  05DC  2DD7               	goto	u1937
  3781  05DD  0000               	nop
  3782                           
  3783                           ;pic16f87xa.c: 406: Lcd_Clear();
  3784  05DE  120A  118A  2004  120A  118A  	fcall	_Lcd_Clear
  3785                           
  3786                           ;pic16f87xa.c: 407: Lcd_String(1,1,"GPRS configured");
  3787  05E3  01F5               	clrf	Lcd_String@b
  3788  05E4  0AF5               	incf	Lcd_String@b,f
  3789  05E5  30EC               	movlw	low (STR_6| (0+32768))
  3790  05E6  00F6               	movwf	Lcd_String@c
  3791  05E7  3088               	movlw	high (STR_6| (0+32768))
  3792  05E8  00F7               	movwf	Lcd_String@c+1
  3793  05E9  3001               	movlw	1
  3794  05EA  120A  118A  2203  120A  118A  	fcall	_Lcd_String
  3795                           
  3796                           ;pic16f87xa.c: 408: Lcd_String(2,1,"Successfully...");
  3797  05EF  01F5               	clrf	Lcd_String@b
  3798  05F0  0AF5               	incf	Lcd_String@b,f
  3799  05F1  30DC               	movlw	low (STR_7| (0+32768))
  3800  05F2  00F6               	movwf	Lcd_String@c
  3801  05F3  3088               	movlw	high (STR_7| (0+32768))
  3802  05F4  00F7               	movwf	Lcd_String@c+1
  3803  05F5  3002               	movlw	2
  3804  05F6  120A  118A  2203  120A  118A  	fcall	_Lcd_String
  3805                           
  3806                           ;pic16f87xa.c: 409: _delay((unsigned long)((1000)*(20000000/4000.0)));
  3807  05FB  301A               	movlw	26
  3808  05FC  00FD               	movwf	??_GPRS1_Init+2
  3809  05FD  305E               	movlw	94
  3810  05FE  00FC               	movwf	??_GPRS1_Init+1
  3811  05FF  306E               	movlw	110
  3812  0600  00FB               	movwf	??_GPRS1_Init
  3813  0601                     u1947:	
  3814  0601  0BFB               	decfsz	??_GPRS1_Init,f
  3815  0602  2E01               	goto	u1947
  3816  0603  0BFC               	decfsz	??_GPRS1_Init+1,f
  3817  0604  2E01               	goto	u1947
  3818  0605  0BFD               	decfsz	??_GPRS1_Init+2,f
  3819  0606  2E01               	goto	u1947
  3820  0607  0000               	nop
  3821  0608  0008               	return
  3822  0609                     __end_of_GPRS1_Init:	
  3823                           ;pic16f87xa.c: 414: }
  3824                           ;pic16f87xa.c: 416: {
  3825                           
  3826                           
  3827                           	psect	text11
  3828  0F37                     __ptext11:	
  3829 ;; *************** function _strcmp *****************
  3830 ;; Defined at:
  3831 ;;		line 33 in file "C:\Program Files (x86)\Microchip\xc8\v1.45\sources\common\strcmp.c"
  3832 ;; Parameters:    Size  Location     Type
  3833 ;;  s1              1    wreg     PTR const unsigned char 
  3834 ;;		 -> GPRS1_Check_OK@gprs_data(8), GPRS1_Init@gprs_data(8), 
  3835 ;;  s2              1    0[COMMON] PTR const unsigned char 
  3836 ;;		 -> GPRS1_Check_OK@response(3), GPRS1_Init@response(3), 
  3837 ;; Auto vars:     Size  Location     Type
  3838 ;;  s1              1    5[COMMON] PTR const unsigned char 
  3839 ;;		 -> GPRS1_Check_OK@gprs_data(8), GPRS1_Init@gprs_data(8), 
  3840 ;;  r               1    4[COMMON] char 
  3841 ;; Return value:  Size  Location     Type
  3842 ;;                  2    0[COMMON] int 
  3843 ;; Registers used:
  3844 ;;		wreg, fsr0l, fsr0h, status,2, status,0
  3845 ;; Tracked objects:
  3846 ;;		On entry : 0/0
  3847 ;;		On exit  : 0/0
  3848 ;;		Unchanged: 0/0
  3849 ;; Data sizes:     COMMON   BANK0   BANK1   BANK3   BANK2
  3850 ;;      Params:         2       0       0       0       0
  3851 ;;      Locals:         2       0       0       0       0
  3852 ;;      Temps:          2       0       0       0       0
  3853 ;;      Totals:         6       0       0       0       0
  3854 ;;Total ram usage:        6 bytes
  3855 ;; Hardware stack levels used:    1
  3856 ;; This function calls:
  3857 ;;		Nothing
  3858 ;; This function is called by:
  3859 ;;		_GPRS1_Init
  3860 ;;		_GPRS1_Check_OK
  3861 ;; This function uses a non-reentrant model
  3862 ;;
  3863                           
  3864                           
  3865                           ;psect for function _strcmp
  3866  0F37                     _strcmp:	
  3867                           
  3868                           ;incstack = 0
  3869                           ; Regs used in _strcmp: [wreg-fsr0h+status,2+status,0]
  3870                           ;strcmp@s1 stored from wreg
  3871  0F37  00F5               	movwf	strcmp@s1
  3872  0F38  2F41               	goto	l1647
  3873  0F39                     l1643:	
  3874  0F39  3001               	movlw	1
  3875  0F3A  00F2               	movwf	??_strcmp
  3876  0F3B  0872               	movf	??_strcmp,w
  3877  0F3C  07F5               	addwf	strcmp@s1,f
  3878  0F3D  3001               	movlw	1
  3879  0F3E  00F2               	movwf	??_strcmp
  3880  0F3F  0872               	movf	??_strcmp,w
  3881  0F40  07F0               	addwf	strcmp@s2,f
  3882  0F41                     l1647:	
  3883  0F41  0875               	movf	strcmp@s1,w
  3884  0F42  0084               	movwf	4
  3885  0F43  1383               	bcf	3,7	;select IRP bank0
  3886  0F44  0800               	movf	0,w
  3887  0F45  00F2               	movwf	??_strcmp
  3888  0F46  0870               	movf	strcmp@s2,w
  3889  0F47  0084               	movwf	4
  3890  0F48  0300               	decf	0,w
  3891  0F49  3AFF               	xorlw	255
  3892  0F4A  0772               	addwf	??_strcmp,w
  3893  0F4B  00F3               	movwf	??_strcmp+1
  3894  0F4C  0873               	movf	??_strcmp+1,w
  3895  0F4D  00F4               	movwf	strcmp@r
  3896  0F4E  0874               	movf	strcmp@r,w
  3897  0F4F  1D03               	btfss	3,2
  3898  0F50  2F56               	goto	l1651
  3899  0F51  0875               	movf	strcmp@s1,w
  3900  0F52  0084               	movwf	4
  3901  0F53  0800               	movf	0,w
  3902  0F54  1D03               	btfss	3,2
  3903  0F55  2F39               	goto	l1643
  3904  0F56                     l1651:	
  3905  0F56  0874               	movf	strcmp@r,w
  3906  0F57  00F0               	movwf	?_strcmp
  3907  0F58  01F1               	clrf	?_strcmp+1
  3908  0F59  1BF0               	btfsc	?_strcmp,7
  3909  0F5A  03F1               	decf	?_strcmp+1,f
  3910  0F5B  0008               	return
  3911  0F5C                     __end_of_strcmp:	
  3912                           
  3913                           	psect	text12
  3914  0EF1                     __ptext12:	
  3915 ;; *************** function _UART1_Send *****************
  3916 ;; Defined at:
  3917 ;;		line 192 in file "pic16f87xa.c"
  3918 ;; Parameters:    Size  Location     Type
  3919 ;;  s               2    2[COMMON] PTR unsigned char 
  3920 ;;		 -> b1(5), a1(12), gprs_web6(12), gprs_web5(16), 
  3921 ;;		 -> STR_14(20), STR_13(4), STR_12(9), STR_11(9), 
  3922 ;;		 -> STR_10(90), STR_9(20), gprs_web1(12), gprs_location(17), 
  3923 ;;		 -> gprs_value5_ip(13), locate(31), gprs_value4(13), STR_5(36), 
  3924 ;;		 -> STR_4(27), STR_3(30), AT(3), 
  3925 ;; Auto vars:     Size  Location     Type
  3926 ;;		None
  3927 ;; Return value:  Size  Location     Type
  3928 ;;                  1    wreg      void 
  3929 ;; Registers used:
  3930 ;;		wreg, fsr0l, fsr0h, status,2, status,0, btemp+1, pclath, cstack
  3931 ;; Tracked objects:
  3932 ;;		On entry : 0/0
  3933 ;;		On exit  : 0/0
  3934 ;;		Unchanged: 0/0
  3935 ;; Data sizes:     COMMON   BANK0   BANK1   BANK3   BANK2
  3936 ;;      Params:         2       0       0       0       0
  3937 ;;      Locals:         0       0       0       0       0
  3938 ;;      Temps:          0       0       0       0       0
  3939 ;;      Totals:         2       0       0       0       0
  3940 ;;Total ram usage:        2 bytes
  3941 ;; Hardware stack levels used:    1
  3942 ;; Hardware stack levels required when called:    1
  3943 ;; This function calls:
  3944 ;;		_UART1_Write
  3945 ;; This function is called by:
  3946 ;;		_GPRS1_Init
  3947 ;;		_GPRS1_Update
  3948 ;;		_GPRS1_Check_OK
  3949 ;;		_GPRS1_Location
  3950 ;; This function uses a non-reentrant model
  3951 ;;
  3952                           
  3953                           
  3954                           ;psect for function _UART1_Send
  3955  0EF1                     _UART1_Send:	
  3956  0EF1                     l1607:	
  3957                           ;pic16f87xa.c: 194: while(*s)
  3958                           
  3959                           ;incstack = 0
  3960                           ; Regs used in _UART1_Send: [wreg-fsr0h+status,2+status,0+btemp+1+pclath+cstack]
  3961                           
  3962  0EF1  0873               	movf	UART1_Send@s+1,w
  3963  0EF2  1283               	bcf	3,5	;RP0=0, select bank0
  3964  0EF3  1303               	bcf	3,6	;RP1=0, select bank0
  3965  0EF4  00FF               	movwf	127
  3966  0EF5  0872               	movf	UART1_Send@s,w
  3967  0EF6  0084               	movwf	4
  3968  0EF7  120A  158A  2168  120A  158A  	fcall	stringtab
  3969  0EFC  3A00               	xorlw	0
  3970  0EFD  1903               	btfsc	3,2
  3971  0EFE  0008               	return
  3972                           
  3973                           ;pic16f87xa.c: 195: UART1_Write(*s++);
  3974  0EFF  0873               	movf	UART1_Send@s+1,w
  3975  0F00  1283               	bcf	3,5	;RP0=0, select bank0
  3976  0F01  1303               	bcf	3,6	;RP1=0, select bank0
  3977  0F02  00FF               	movwf	127
  3978  0F03  0872               	movf	UART1_Send@s,w
  3979  0F04  0084               	movwf	4
  3980  0F05  120A  158A  2168  120A  158A  	fcall	stringtab
  3981  0F0A  120A  158A  269C  120A  158A  	fcall	_UART1_Write
  3982  0F0F  3001               	movlw	1
  3983  0F10  07F2               	addwf	UART1_Send@s,f
  3984  0F11  1803               	skipnc
  3985  0F12  0AF3               	incf	UART1_Send@s+1,f
  3986  0F13  2EF1               	goto	l1607
  3987  0F14                     __end_of_UART1_Send:	
  3988                           
  3989                           	psect	text13
  3990  0E9C                     __ptext13:	
  3991 ;; *************** function _UART1_Write *****************
  3992 ;; Defined at:
  3993 ;;		line 184 in file "pic16f87xa.c"
  3994 ;; Parameters:    Size  Location     Type
  3995 ;;  data            1    wreg     unsigned char 
  3996 ;; Auto vars:     Size  Location     Type
  3997 ;;  data            1    1[COMMON] unsigned char 
  3998 ;; Return value:  Size  Location     Type
  3999 ;;                  1    wreg      void 
  4000 ;; Registers used:
  4001 ;;		wreg
  4002 ;; Tracked objects:
  4003 ;;		On entry : 0/0
  4004 ;;		On exit  : 0/0
  4005 ;;		Unchanged: 0/0
  4006 ;; Data sizes:     COMMON   BANK0   BANK1   BANK3   BANK2
  4007 ;;      Params:         0       0       0       0       0
  4008 ;;      Locals:         1       0       0       0       0
  4009 ;;      Temps:          1       0       0       0       0
  4010 ;;      Totals:         2       0       0       0       0
  4011 ;;Total ram usage:        2 bytes
  4012 ;; Hardware stack levels used:    1
  4013 ;; This function calls:
  4014 ;;		Nothing
  4015 ;; This function is called by:
  4016 ;;		_UART1_Send
  4017 ;;		_GPRS1_Init
  4018 ;;		_GPRS1_Update
  4019 ;;		_GPRS1_Check_OK
  4020 ;;		_GPRS1_Location
  4021 ;; This function uses a non-reentrant model
  4022 ;;
  4023                           
  4024                           
  4025                           ;psect for function _UART1_Write
  4026  0E9C                     _UART1_Write:	
  4027                           
  4028                           ;incstack = 0
  4029                           ; Regs used in _UART1_Write: [wreg]
  4030                           ;UART1_Write@data stored from wreg
  4031  0E9C  00F1               	movwf	UART1_Write@data
  4032  0E9D                     l172:	
  4033                           ;pic16f87xa.c: 187: while(!TRMT);
  4034                           
  4035  0E9D  1683               	bsf	3,5	;RP0=1, select bank1
  4036  0E9E  1303               	bcf	3,6	;RP1=0, select bank1
  4037  0E9F  1C98               	btfss	24,1	;volatile
  4038  0EA0  2E9D               	goto	l172
  4039                           
  4040                           ;pic16f87xa.c: 188: TXREG = data;
  4041  0EA1  0871               	movf	UART1_Write@data,w
  4042  0EA2  1283               	bcf	3,5	;RP0=0, select bank0
  4043  0EA3  1303               	bcf	3,6	;RP1=0, select bank0
  4044  0EA4  0099               	movwf	25	;volatile
  4045                           
  4046                           ;pic16f87xa.c: 189: _delay((unsigned long)((10)*(20000000/4000000.0)));
  4047  0EA5  3010               	movlw	16
  4048  0EA6  00F0               	movwf	??_UART1_Write
  4049  0EA7                     u1957:	
  4050  0EA7  0BF0               	decfsz	??_UART1_Write,f
  4051  0EA8  2EA7               	goto	u1957
  4052  0EA9  0000               	nop
  4053  0EAA  0008               	return
  4054  0EAB                     __end_of_UART1_Write:	
  4055                           
  4056                           	psect	text14
  4057  0E7E                     __ptext14:	
  4058 ;; *************** function _UART1_Data_Ready *****************
  4059 ;; Defined at:
  4060 ;;		line 203 in file "pic16f87xa.c"
  4061 ;; Parameters:    Size  Location     Type
  4062 ;;		None
  4063 ;; Auto vars:     Size  Location     Type
  4064 ;;		None
  4065 ;; Return value:  Size  Location     Type
  4066 ;;                  1    wreg      unsigned char 
  4067 ;; Registers used:
  4068 ;;		wreg
  4069 ;; Tracked objects:
  4070 ;;		On entry : 0/0
  4071 ;;		On exit  : 0/0
  4072 ;;		Unchanged: 0/0
  4073 ;; Data sizes:     COMMON   BANK0   BANK1   BANK3   BANK2
  4074 ;;      Params:         0       0       0       0       0
  4075 ;;      Locals:         0       0       0       0       0
  4076 ;;      Temps:          0       0       0       0       0
  4077 ;;      Totals:         0       0       0       0       0
  4078 ;;Total ram usage:        0 bytes
  4079 ;; Hardware stack levels used:    1
  4080 ;; This function calls:
  4081 ;;		Nothing
  4082 ;; This function is called by:
  4083 ;;		_GPRS1_Init
  4084 ;;		_UART1_Read_String
  4085 ;;		_GPRS1_Check_OK
  4086 ;; This function uses a non-reentrant model
  4087 ;;
  4088                           
  4089                           
  4090                           ;psect for function _UART1_Data_Ready
  4091  0E7E                     _UART1_Data_Ready:	
  4092                           
  4093                           ;pic16f87xa.c: 205: return RCIF;
  4094                           
  4095                           ;incstack = 0
  4096                           ; Regs used in _UART1_Data_Ready: [wreg]
  4097  0E7E  3000               	movlw	0
  4098  0E7F  1283               	bcf	3,5	;RP0=0, select bank0
  4099  0E80  1303               	bcf	3,6	;RP1=0, select bank0
  4100  0E81  1A8C               	btfsc	12,5	;volatile
  4101  0E82  3001               	movlw	1
  4102  0E83  0008               	return
  4103  0E84                     __end_of_UART1_Data_Ready:	
  4104                           
  4105                           	psect	text15
  4106  0203                     __ptext15:	
  4107 ;; *************** function _Lcd_String *****************
  4108 ;; Defined at:
  4109 ;;		line 144 in file "pic16f87xa.c"
  4110 ;; Parameters:    Size  Location     Type
  4111 ;;  a               1    wreg     unsigned char 
  4112 ;;  b               1    5[COMMON] unsigned char 
  4113 ;;  c               2    6[COMMON] PTR unsigned char 
  4114 ;;		 -> STR_16(11), STR_15(9), STR_8(4), STR_7(16), 
  4115 ;;		 -> STR_6(16), STR_2(15), STR_1(17), 
  4116 ;; Auto vars:     Size  Location     Type
  4117 ;;  a               1    0[BANK0 ] unsigned char 
  4118 ;;  i               2    1[BANK0 ] int 
  4119 ;;  temp            1    5[BANK0 ] unsigned char 
  4120 ;;  y               1    4[BANK0 ] unsigned char 
  4121 ;;  z               1    3[BANK0 ] unsigned char 
  4122 ;; Return value:  Size  Location     Type
  4123 ;;                  1    wreg      void 
  4124 ;; Registers used:
  4125 ;;		wreg, fsr0l, fsr0h, status,2, status,0, btemp+1, pclath, cstack
  4126 ;; Tracked objects:
  4127 ;;		On entry : 0/0
  4128 ;;		On exit  : 0/0
  4129 ;;		Unchanged: 0/0
  4130 ;; Data sizes:     COMMON   BANK0   BANK1   BANK3   BANK2
  4131 ;;      Params:         3       0       0       0       0
  4132 ;;      Locals:         0       6       0       0       0
  4133 ;;      Temps:          3       0       0       0       0
  4134 ;;      Totals:         6       6       0       0       0
  4135 ;;Total ram usage:       12 bytes
  4136 ;; Hardware stack levels used:    1
  4137 ;; Hardware stack levels required when called:    2
  4138 ;; This function calls:
  4139 ;;		_Lcd_Cmd
  4140 ;;		_Lcd_Write_Char
  4141 ;; This function is called by:
  4142 ;;		_GPRS1_Init
  4143 ;;		_main
  4144 ;;		_GPRS1_Location
  4145 ;; This function uses a non-reentrant model
  4146 ;;
  4147                           
  4148                           
  4149                           ;psect for function _Lcd_String
  4150  0203                     _Lcd_String:	
  4151                           
  4152                           ;incstack = 0
  4153                           ; Regs used in _Lcd_String: [wreg-fsr0h+status,2+status,0+btemp+1+pclath+cstack]
  4154                           ;Lcd_String@a stored from wreg
  4155  0203  1283               	bcf	3,5	;RP0=0, select bank0
  4156  0204  1303               	bcf	3,6	;RP1=0, select bank0
  4157  0205  00CD               	movwf	Lcd_String@a
  4158                           
  4159                           ;pic16f87xa.c: 146: int i;
  4160                           ;pic16f87xa.c: 147: char temp,z,y;
  4161                           ;pic16f87xa.c: 148: if(a == 1)
  4162  0206  034D               	decf	Lcd_String@a,w
  4163  0207  1D03               	btfss	3,2
  4164  0208  2A17               	goto	l1583
  4165                           
  4166                           ;pic16f87xa.c: 149: {
  4167                           ;pic16f87xa.c: 150: temp = 0x80 + b - 1;
  4168  0209  0875               	movf	Lcd_String@b,w
  4169  020A  3E7F               	addlw	127
  4170  020B  00F8               	movwf	??_Lcd_String
  4171  020C  0878               	movf	??_Lcd_String,w
  4172  020D  00D2               	movwf	Lcd_String@temp
  4173                           
  4174                           ;pic16f87xa.c: 151: z = temp>>4;
  4175  020E  0852               	movf	Lcd_String@temp,w
  4176  020F  00F8               	movwf	??_Lcd_String
  4177  0210  3004               	movlw	4
  4178  0211                     u825:	
  4179  0211  1003               	clrc
  4180  0212  0CF8               	rrf	??_Lcd_String,f
  4181  0213  3EFF               	addlw	-1
  4182  0214  1D03               	skipz
  4183  0215  2A11               	goto	u825
  4184  0216  2A2A               	goto	L2
  4185  0217                     l1583:	
  4186                           ;pic16f87xa.c: 155: }
  4187                           
  4188                           ;pic16f87xa.c: 154: Lcd_Cmd(y);
  4189                           
  4190                           ;pic16f87xa.c: 153: Lcd_Cmd(z);
  4191                           
  4192                           ;pic16f87xa.c: 152: y = temp & 0x0F;
  4193                           
  4194                           
  4195                           ;pic16f87xa.c: 156: else if(a == 2)
  4196  0217  3002               	movlw	2
  4197  0218  1283               	bcf	3,5	;RP0=0, select bank0
  4198  0219  1303               	bcf	3,6	;RP1=0, select bank0
  4199  021A  064D               	xorwf	Lcd_String@a,w
  4200  021B  1D03               	btfss	3,2
  4201  021C  2A41               	goto	l1593
  4202                           
  4203                           ;pic16f87xa.c: 157: {
  4204                           ;pic16f87xa.c: 158: temp = 0xC0 + b - 1;
  4205  021D  0875               	movf	Lcd_String@b,w
  4206  021E  3EBF               	addlw	191
  4207  021F  00F8               	movwf	??_Lcd_String
  4208  0220  0878               	movf	??_Lcd_String,w
  4209  0221  00D2               	movwf	Lcd_String@temp
  4210                           
  4211                           ;pic16f87xa.c: 159: z = temp>>4;
  4212  0222  0852               	movf	Lcd_String@temp,w
  4213  0223  00F8               	movwf	??_Lcd_String
  4214  0224  3004               	movlw	4
  4215  0225                     u845:	
  4216  0225  1003               	clrc
  4217  0226  0CF8               	rrf	??_Lcd_String,f
  4218  0227  3EFF               	addlw	-1
  4219  0228  1D03               	skipz
  4220  0229  2A25               	goto	u845
  4221  022A                     L2:	
  4222  022A  0878               	movf	??_Lcd_String,w
  4223  022B  00F9               	movwf	??_Lcd_String+1
  4224  022C  0879               	movf	??_Lcd_String+1,w
  4225  022D  00D0               	movwf	Lcd_String@z
  4226                           
  4227                           ;pic16f87xa.c: 160: y = temp & 0x0F;
  4228  022E  0852               	movf	Lcd_String@temp,w
  4229  022F  390F               	andlw	15
  4230  0230  00F8               	movwf	??_Lcd_String
  4231  0231  0878               	movf	??_Lcd_String,w
  4232  0232  00D1               	movwf	Lcd_String@y
  4233                           
  4234                           ;pic16f87xa.c: 161: Lcd_Cmd(z);
  4235  0233  0850               	movf	Lcd_String@z,w
  4236  0234  120A  158A  26D6  120A  118A  	fcall	_Lcd_Cmd
  4237                           
  4238                           ;pic16f87xa.c: 162: Lcd_Cmd(y);
  4239  0239  1283               	bcf	3,5	;RP0=0, select bank0
  4240  023A  1303               	bcf	3,6	;RP1=0, select bank0
  4241  023B  0851               	movf	Lcd_String@y,w
  4242  023C  120A  158A  26D6  120A  118A  	fcall	_Lcd_Cmd
  4243  0241                     l1593:	
  4244                           
  4245                           ;pic16f87xa.c: 163: }
  4246                           ;pic16f87xa.c: 164: for(i=0;c[i]!='\0';i++)
  4247  0241  1283               	bcf	3,5	;RP0=0, select bank0
  4248  0242  1303               	bcf	3,6	;RP1=0, select bank0
  4249  0243  01CE               	clrf	Lcd_String@i
  4250  0244  01CF               	clrf	Lcd_String@i+1
  4251  0245                     l1599:	
  4252  0245  084E               	movf	Lcd_String@i,w
  4253  0246  0776               	addwf	Lcd_String@c,w
  4254  0247  00F9               	movwf	??_Lcd_String+1
  4255  0248  0877               	movf	Lcd_String@c+1,w
  4256  0249  00F8               	movwf	??_Lcd_String
  4257  024A  1803               	skipnc
  4258  024B  0AF8               	incf	??_Lcd_String,f
  4259  024C  1BCE               	btfsc	Lcd_String@i,7
  4260  024D  03F8               	decf	??_Lcd_String,f
  4261  024E  0878               	movf	??_Lcd_String,w
  4262  024F  00FA               	movwf	??_Lcd_String+2
  4263  0250  087A               	movf	??_Lcd_String+2,w
  4264  0251  1283               	bcf	3,5	;RP0=0, select bank0
  4265  0252  1303               	bcf	3,6	;RP1=0, select bank0
  4266  0253  00FF               	movwf	127
  4267  0254  0879               	movf	??_Lcd_String+1,w
  4268  0255  0084               	movwf	4
  4269  0256  120A  158A  2168  120A  118A  	fcall	stringtab
  4270  025B  3A00               	xorlw	0
  4271  025C  1903               	btfsc	3,2
  4272  025D  0008               	return
  4273                           
  4274                           ;pic16f87xa.c: 165: Lcd_Write_Char(c[i]);
  4275  025E  084E               	movf	Lcd_String@i,w
  4276  025F  0776               	addwf	Lcd_String@c,w
  4277  0260  00F9               	movwf	??_Lcd_String+1
  4278  0261  0877               	movf	Lcd_String@c+1,w
  4279  0262  00F8               	movwf	??_Lcd_String
  4280  0263  1803               	skipnc
  4281  0264  0AF8               	incf	??_Lcd_String,f
  4282  0265  1BCE               	btfsc	Lcd_String@i,7
  4283  0266  03F8               	decf	??_Lcd_String,f
  4284  0267  0878               	movf	??_Lcd_String,w
  4285  0268  00FA               	movwf	??_Lcd_String+2
  4286  0269  087A               	movf	??_Lcd_String+2,w
  4287  026A  1283               	bcf	3,5	;RP0=0, select bank0
  4288  026B  1303               	bcf	3,6	;RP1=0, select bank0
  4289  026C  00FF               	movwf	127
  4290  026D  0879               	movf	??_Lcd_String+1,w
  4291  026E  0084               	movwf	4
  4292  026F  120A  158A  2168  120A  118A  	fcall	stringtab
  4293  0274  120A  158A  2789  120A  118A  	fcall	_Lcd_Write_Char
  4294  0279  3001               	movlw	1
  4295  027A  1283               	bcf	3,5	;RP0=0, select bank0
  4296  027B  1303               	bcf	3,6	;RP1=0, select bank0
  4297  027C  07CE               	addwf	Lcd_String@i,f
  4298  027D  1803               	skipnc
  4299  027E  0ACF               	incf	Lcd_String@i+1,f
  4300  027F  3000               	movlw	0
  4301  0280  07CF               	addwf	Lcd_String@i+1,f
  4302  0281  2A45               	goto	l1599
  4303  0282                     __end_of_Lcd_String:	
  4304                           
  4305                           	psect	text16
  4306  0F89                     __ptext16:	
  4307 ;; *************** function _Lcd_Write_Char *****************
  4308 ;; Defined at:
  4309 ;;		line 87 in file "pic16f87xa.c"
  4310 ;; Parameters:    Size  Location     Type
  4311 ;;  a               1    wreg     unsigned char 
  4312 ;; Auto vars:     Size  Location     Type
  4313 ;;  a               1    4[COMMON] unsigned char 
  4314 ;;  y               1    3[COMMON] unsigned char 
  4315 ;;  temp            1    2[COMMON] unsigned char 
  4316 ;; Return value:  Size  Location     Type
  4317 ;;                  1    wreg      void 
  4318 ;; Registers used:
  4319 ;;		wreg, status,2, status,0, pclath, cstack
  4320 ;; Tracked objects:
  4321 ;;		On entry : 0/0
  4322 ;;		On exit  : 0/0
  4323 ;;		Unchanged: 0/0
  4324 ;; Data sizes:     COMMON   BANK0   BANK1   BANK3   BANK2
  4325 ;;      Params:         0       0       0       0       0
  4326 ;;      Locals:         3       0       0       0       0
  4327 ;;      Temps:          1       0       0       0       0
  4328 ;;      Totals:         4       0       0       0       0
  4329 ;;Total ram usage:        4 bytes
  4330 ;; Hardware stack levels used:    1
  4331 ;; Hardware stack levels required when called:    1
  4332 ;; This function calls:
  4333 ;;		_Lcd_Port
  4334 ;; This function is called by:
  4335 ;;		_Lcd_Write_String
  4336 ;;		_Lcd_String
  4337 ;; This function uses a non-reentrant model
  4338 ;;
  4339                           
  4340                           
  4341                           ;psect for function _Lcd_Write_Char
  4342  0F89                     _Lcd_Write_Char:	
  4343                           
  4344                           ;incstack = 0
  4345                           ; Regs used in _Lcd_Write_Char: [wreg+status,2+status,0+pclath+cstack]
  4346                           ;Lcd_Write_Char@a stored from wreg
  4347  0F89  00F4               	movwf	Lcd_Write_Char@a
  4348                           
  4349                           ;pic16f87xa.c: 89: char temp,y;
  4350                           ;pic16f87xa.c: 91: temp = a&0x0F;
  4351  0F8A  0874               	movf	Lcd_Write_Char@a,w
  4352  0F8B  390F               	andlw	15
  4353  0F8C  00F1               	movwf	??_Lcd_Write_Char
  4354  0F8D  0871               	movf	??_Lcd_Write_Char,w
  4355  0F8E  00F2               	movwf	Lcd_Write_Char@temp
  4356                           
  4357                           ;pic16f87xa.c: 92: y = a&0xF0;
  4358  0F8F  0874               	movf	Lcd_Write_Char@a,w
  4359  0F90  39F0               	andlw	240
  4360  0F91  00F1               	movwf	??_Lcd_Write_Char
  4361  0F92  0871               	movf	??_Lcd_Write_Char,w
  4362  0F93  00F3               	movwf	Lcd_Write_Char@y
  4363                           
  4364                           ;pic16f87xa.c: 93: RD1 = 1;
  4365  0F94  1283               	bcf	3,5	;RP0=0, select bank0
  4366  0F95  1303               	bcf	3,6	;RP1=0, select bank0
  4367  0F96  1488               	bsf	8,1	;volatile
  4368                           
  4369                           ;pic16f87xa.c: 94: RD2=0;
  4370  0F97  1108               	bcf	8,2	;volatile
  4371                           
  4372                           ;pic16f87xa.c: 95: Lcd_Port(y>>4);
  4373  0F98  0873               	movf	Lcd_Write_Char@y,w
  4374  0F99  00F1               	movwf	??_Lcd_Write_Char
  4375  0F9A  3004               	movlw	4
  4376  0F9B                     u795:	
  4377  0F9B  1003               	clrc
  4378  0F9C  0CF1               	rrf	??_Lcd_Write_Char,f
  4379  0F9D  3EFF               	addlw	-1
  4380  0F9E  1D03               	skipz
  4381  0F9F  2F9B               	goto	u795
  4382  0FA0  0871               	movf	??_Lcd_Write_Char,w
  4383  0FA1  120A  158A  26BC  120A  158A  	fcall	_Lcd_Port
  4384                           
  4385                           ;pic16f87xa.c: 96: RD0 = 1;
  4386  0FA6  1283               	bcf	3,5	;RP0=0, select bank0
  4387  0FA7  1303               	bcf	3,6	;RP1=0, select bank0
  4388  0FA8  1408               	bsf	8,0	;volatile
  4389                           
  4390                           ;pic16f87xa.c: 97: _delay((unsigned long)((40)*(20000000/4000000.0)));
  4391  0FA9  3042               	movlw	66
  4392  0FAA  00F1               	movwf	??_Lcd_Write_Char
  4393  0FAB                     u1967:	
  4394  0FAB  0BF1               	decfsz	??_Lcd_Write_Char,f
  4395  0FAC  2FAB               	goto	u1967
  4396  0FAD  0000               	nop
  4397                           
  4398                           ;pic16f87xa.c: 98: RD0 = 0;
  4399  0FAE  1283               	bcf	3,5	;RP0=0, select bank0
  4400  0FAF  1303               	bcf	3,6	;RP1=0, select bank0
  4401  0FB0  1008               	bcf	8,0	;volatile
  4402                           
  4403                           ;pic16f87xa.c: 99: Lcd_Port(temp);
  4404  0FB1  0872               	movf	Lcd_Write_Char@temp,w
  4405  0FB2  120A  158A  26BC  120A  158A  	fcall	_Lcd_Port
  4406                           
  4407                           ;pic16f87xa.c: 100: RD0 = 1;
  4408  0FB7  1283               	bcf	3,5	;RP0=0, select bank0
  4409  0FB8  1303               	bcf	3,6	;RP1=0, select bank0
  4410  0FB9  1408               	bsf	8,0	;volatile
  4411                           
  4412                           ;pic16f87xa.c: 101: _delay((unsigned long)((40)*(20000000/4000000.0)));
  4413  0FBA  3042               	movlw	66
  4414  0FBB  00F1               	movwf	??_Lcd_Write_Char
  4415  0FBC                     u1977:	
  4416  0FBC  0BF1               	decfsz	??_Lcd_Write_Char,f
  4417  0FBD  2FBC               	goto	u1977
  4418  0FBE  0000               	nop
  4419                           
  4420                           ;pic16f87xa.c: 102: RD0 = 0;
  4421  0FBF  1283               	bcf	3,5	;RP0=0, select bank0
  4422  0FC0  1303               	bcf	3,6	;RP1=0, select bank0
  4423  0FC1  1008               	bcf	8,0	;volatile
  4424  0FC2  0008               	return
  4425  0FC3                     __end_of_Lcd_Write_Char:	
  4426                           
  4427                           	psect	text17
  4428  0147                     __ptext17:	
  4429 ;; *************** function _Lcd_Init *****************
  4430 ;; Defined at:
  4431 ;;		line 68 in file "pic16f87xa.c"
  4432 ;; Parameters:    Size  Location     Type
  4433 ;;		None
  4434 ;; Auto vars:     Size  Location     Type
  4435 ;;		None
  4436 ;; Return value:  Size  Location     Type
  4437 ;;                  1    wreg      void 
  4438 ;; Registers used:
  4439 ;;		wreg, status,2, status,0, pclath, cstack
  4440 ;; Tracked objects:
  4441 ;;		On entry : 0/0
  4442 ;;		On exit  : 0/0
  4443 ;;		Unchanged: 0/0
  4444 ;; Data sizes:     COMMON   BANK0   BANK1   BANK3   BANK2
  4445 ;;      Params:         0       0       0       0       0
  4446 ;;      Locals:         0       0       0       0       0
  4447 ;;      Temps:          2       0       0       0       0
  4448 ;;      Totals:         2       0       0       0       0
  4449 ;;Total ram usage:        2 bytes
  4450 ;; Hardware stack levels used:    1
  4451 ;; Hardware stack levels required when called:    2
  4452 ;; This function calls:
  4453 ;;		_Lcd_Cmd
  4454 ;;		_Lcd_Port
  4455 ;; This function is called by:
  4456 ;;		_GPRS1_Init
  4457 ;;		_main
  4458 ;;		_GPRS1_Check_OK
  4459 ;; This function uses a non-reentrant model
  4460 ;;
  4461                           
  4462                           
  4463                           ;psect for function _Lcd_Init
  4464  0147                     _Lcd_Init:	
  4465                           
  4466                           ;pic16f87xa.c: 70: Lcd_Port(0x00);
  4467                           
  4468                           ;incstack = 0
  4469                           ; Regs used in _Lcd_Init: [wreg+status,2+status,0+pclath+cstack]
  4470  0147  3000               	movlw	0
  4471  0148  120A  158A  26BC  120A  118A  	fcall	_Lcd_Port
  4472                           
  4473                           ;pic16f87xa.c: 71: _delay((unsigned long)((20)*(20000000/4000.0)));
  4474  014D  3082               	movlw	130
  4475  014E  00F5               	movwf	??_Lcd_Init+1
  4476  014F  30DD               	movlw	221
  4477  0150  00F4               	movwf	??_Lcd_Init
  4478  0151                     u1987:	
  4479  0151  0BF4               	decfsz	??_Lcd_Init,f
  4480  0152  2951               	goto	u1987
  4481  0153  0BF5               	decfsz	??_Lcd_Init+1,f
  4482  0154  2951               	goto	u1987
  4483  0155  2956               	nop2
  4484                           
  4485                           ;pic16f87xa.c: 72: Lcd_Cmd(0x03);
  4486  0156  3003               	movlw	3
  4487  0157  120A  158A  26D6  120A  118A  	fcall	_Lcd_Cmd
  4488                           
  4489                           ;pic16f87xa.c: 73: _delay((unsigned long)((5)*(20000000/4000.0)));
  4490  015C  3021               	movlw	33
  4491  015D  00F5               	movwf	??_Lcd_Init+1
  4492  015E  3076               	movlw	118
  4493  015F  00F4               	movwf	??_Lcd_Init
  4494  0160                     u1997:	
  4495  0160  0BF4               	decfsz	??_Lcd_Init,f
  4496  0161  2960               	goto	u1997
  4497  0162  0BF5               	decfsz	??_Lcd_Init+1,f
  4498  0163  2960               	goto	u1997
  4499  0164  0000               	nop
  4500                           
  4501                           ;pic16f87xa.c: 74: Lcd_Cmd(0x03);
  4502  0165  3003               	movlw	3
  4503  0166  120A  158A  26D6  120A  118A  	fcall	_Lcd_Cmd
  4504                           
  4505                           ;pic16f87xa.c: 75: _delay((unsigned long)((11)*(20000000/4000.0)));
  4506  016B  3048               	movlw	72
  4507  016C  00F5               	movwf	??_Lcd_Init+1
  4508  016D  306C               	movlw	108
  4509  016E  00F4               	movwf	??_Lcd_Init
  4510  016F                     u2007:	
  4511  016F  0BF4               	decfsz	??_Lcd_Init,f
  4512  0170  296F               	goto	u2007
  4513  0171  0BF5               	decfsz	??_Lcd_Init+1,f
  4514  0172  296F               	goto	u2007
  4515  0173  0000               	nop
  4516                           
  4517                           ;pic16f87xa.c: 76: Lcd_Cmd(0x03);
  4518  0174  3003               	movlw	3
  4519  0175  120A  158A  26D6  120A  118A  	fcall	_Lcd_Cmd
  4520                           
  4521                           ;pic16f87xa.c: 78: Lcd_Cmd(0x02);
  4522  017A  3002               	movlw	2
  4523  017B  120A  158A  26D6  120A  118A  	fcall	_Lcd_Cmd
  4524                           
  4525                           ;pic16f87xa.c: 79: Lcd_Cmd(0x02);
  4526  0180  3002               	movlw	2
  4527  0181  120A  158A  26D6  120A  118A  	fcall	_Lcd_Cmd
  4528                           
  4529                           ;pic16f87xa.c: 80: Lcd_Cmd(0x08);
  4530  0186  3008               	movlw	8
  4531  0187  120A  158A  26D6  120A  118A  	fcall	_Lcd_Cmd
  4532                           
  4533                           ;pic16f87xa.c: 81: Lcd_Cmd(0x00);
  4534  018C  3000               	movlw	0
  4535  018D  120A  158A  26D6  120A  118A  	fcall	_Lcd_Cmd
  4536                           
  4537                           ;pic16f87xa.c: 82: Lcd_Cmd(0x0C);
  4538  0192  300C               	movlw	12
  4539  0193  120A  158A  26D6  120A  118A  	fcall	_Lcd_Cmd
  4540                           
  4541                           ;pic16f87xa.c: 83: Lcd_Cmd(0x00);
  4542  0198  3000               	movlw	0
  4543  0199  120A  158A  26D6  120A  118A  	fcall	_Lcd_Cmd
  4544                           
  4545                           ;pic16f87xa.c: 84: Lcd_Cmd(0x06);
  4546  019E  3006               	movlw	6
  4547  019F  120A  158A  26D6   	fcall	_Lcd_Cmd
  4548  01A2  0008               	return
  4549  01A3                     __end_of_Lcd_Init:	
  4550                           
  4551                           	psect	text18
  4552  0004                     __ptext18:	
  4553 ;; *************** function _Lcd_Clear *****************
  4554 ;; Defined at:
  4555 ;;		line 41 in file "pic16f87xa.c"
  4556 ;; Parameters:    Size  Location     Type
  4557 ;;		None
  4558 ;; Auto vars:     Size  Location     Type
  4559 ;;		None
  4560 ;; Return value:  Size  Location     Type
  4561 ;;                  2  132[None  ] int 
  4562 ;; Registers used:
  4563 ;;		wreg, status,2, status,0, pclath, cstack
  4564 ;; Tracked objects:
  4565 ;;		On entry : 0/0
  4566 ;;		On exit  : 0/0
  4567 ;;		Unchanged: 0/0
  4568 ;; Data sizes:     COMMON   BANK0   BANK1   BANK3   BANK2
  4569 ;;      Params:         0       0       0       0       0
  4570 ;;      Locals:         0       0       0       0       0
  4571 ;;      Temps:          0       0       0       0       0
  4572 ;;      Totals:         0       0       0       0       0
  4573 ;;Total ram usage:        0 bytes
  4574 ;; Hardware stack levels used:    1
  4575 ;; Hardware stack levels required when called:    2
  4576 ;; This function calls:
  4577 ;;		_Lcd_Cmd
  4578 ;; This function is called by:
  4579 ;;		_GPRS1_Init
  4580 ;;		_main
  4581 ;;		_GPRS1_Location
  4582 ;; This function uses a non-reentrant model
  4583 ;;
  4584                           
  4585                           
  4586                           ;psect for function _Lcd_Clear
  4587  0004                     _Lcd_Clear:	
  4588                           
  4589                           ;pic16f87xa.c: 43: Lcd_Cmd(0);
  4590                           
  4591                           ;incstack = 0
  4592                           ; Regs used in _Lcd_Clear: [wreg+status,2+status,0+pclath+cstack]
  4593  0004  3000               	movlw	0
  4594  0005  120A  158A  26D6  120A  118A  	fcall	_Lcd_Cmd
  4595                           
  4596                           ;pic16f87xa.c: 44: Lcd_Cmd(1);
  4597  000A  3001               	movlw	1
  4598  000B  120A  158A  26D6   	fcall	_Lcd_Cmd
  4599  000E  0008               	return
  4600  000F                     __end_of_Lcd_Clear:	
  4601                           
  4602                           	psect	text19
  4603  0ED6                     __ptext19:	
  4604 ;; *************** function _Lcd_Cmd *****************
  4605 ;; Defined at:
  4606 ;;		line 31 in file "pic16f87xa.c"
  4607 ;; Parameters:    Size  Location     Type
  4608 ;;  a               1    wreg     unsigned char 
  4609 ;; Auto vars:     Size  Location     Type
  4610 ;;  a               1    3[COMMON] unsigned char 
  4611 ;; Return value:  Size  Location     Type
  4612 ;;                  1    wreg      void 
  4613 ;; Registers used:
  4614 ;;		wreg, status,2, status,0, pclath, cstack
  4615 ;; Tracked objects:
  4616 ;;		On entry : 0/0
  4617 ;;		On exit  : 0/0
  4618 ;;		Unchanged: 0/0
  4619 ;; Data sizes:     COMMON   BANK0   BANK1   BANK3   BANK2
  4620 ;;      Params:         0       0       0       0       0
  4621 ;;      Locals:         1       0       0       0       0
  4622 ;;      Temps:          2       0       0       0       0
  4623 ;;      Totals:         3       0       0       0       0
  4624 ;;Total ram usage:        3 bytes
  4625 ;; Hardware stack levels used:    1
  4626 ;; Hardware stack levels required when called:    1
  4627 ;; This function calls:
  4628 ;;		_Lcd_Port
  4629 ;; This function is called by:
  4630 ;;		_Lcd_Clear
  4631 ;;		_Lcd_Set_Cursor
  4632 ;;		_Lcd_Init
  4633 ;;		_Lcd_String
  4634 ;;		_Lcd_Char
  4635 ;; This function uses a non-reentrant model
  4636 ;;
  4637                           
  4638                           
  4639                           ;psect for function _Lcd_Cmd
  4640  0ED6                     _Lcd_Cmd:	
  4641                           
  4642                           ;incstack = 0
  4643                           ; Regs used in _Lcd_Cmd: [wreg+status,2+status,0+pclath+cstack]
  4644                           ;Lcd_Cmd@a stored from wreg
  4645  0ED6  00F3               	movwf	Lcd_Cmd@a
  4646                           
  4647                           ;pic16f87xa.c: 33: RD1 = 0;
  4648  0ED7  1283               	bcf	3,5	;RP0=0, select bank0
  4649  0ED8  1303               	bcf	3,6	;RP1=0, select bank0
  4650  0ED9  1088               	bcf	8,1	;volatile
  4651                           
  4652                           ;pic16f87xa.c: 34: RD2=0;
  4653  0EDA  1108               	bcf	8,2	;volatile
  4654                           
  4655                           ;pic16f87xa.c: 35: Lcd_Port(a);
  4656  0EDB  0873               	movf	Lcd_Cmd@a,w
  4657  0EDC  120A  158A  26BC  120A  158A  	fcall	_Lcd_Port
  4658                           
  4659                           ;pic16f87xa.c: 36: RD0 = 1;
  4660  0EE1  1283               	bcf	3,5	;RP0=0, select bank0
  4661  0EE2  1303               	bcf	3,6	;RP1=0, select bank0
  4662  0EE3  1408               	bsf	8,0	;volatile
  4663                           
  4664                           ;pic16f87xa.c: 37: _delay((unsigned long)((4)*(20000000/4000.0)));
  4665  0EE4  301A               	movlw	26
  4666  0EE5  00F2               	movwf	??_Lcd_Cmd+1
  4667  0EE6  30F8               	movlw	248
  4668  0EE7  00F1               	movwf	??_Lcd_Cmd
  4669  0EE8                     u2017:	
  4670  0EE8  0BF1               	decfsz	??_Lcd_Cmd,f
  4671  0EE9  2EE8               	goto	u2017
  4672  0EEA  0BF2               	decfsz	??_Lcd_Cmd+1,f
  4673  0EEB  2EE8               	goto	u2017
  4674  0EEC  0000               	nop
  4675                           
  4676                           ;pic16f87xa.c: 38: RD0 = 0;
  4677  0EED  1283               	bcf	3,5	;RP0=0, select bank0
  4678  0EEE  1303               	bcf	3,6	;RP1=0, select bank0
  4679  0EEF  1008               	bcf	8,0	;volatile
  4680  0EF0  0008               	return
  4681  0EF1                     __end_of_Lcd_Cmd:	
  4682                           
  4683                           	psect	text20
  4684  0EBC                     __ptext20:	
  4685 ;; *************** function _Lcd_Port *****************
  4686 ;; Defined at:
  4687 ;;		line 9 in file "pic16f87xa.c"
  4688 ;; Parameters:    Size  Location     Type
  4689 ;;  a               1    wreg     unsigned char 
  4690 ;; Auto vars:     Size  Location     Type
  4691 ;;  a               1    0[COMMON] unsigned char 
  4692 ;; Return value:  Size  Location     Type
  4693 ;;                  1    wreg      void 
  4694 ;; Registers used:
  4695 ;;		wreg
  4696 ;; Tracked objects:
  4697 ;;		On entry : 0/0
  4698 ;;		On exit  : 0/0
  4699 ;;		Unchanged: 0/0
  4700 ;; Data sizes:     COMMON   BANK0   BANK1   BANK3   BANK2
  4701 ;;      Params:         0       0       0       0       0
  4702 ;;      Locals:         1       0       0       0       0
  4703 ;;      Temps:          0       0       0       0       0
  4704 ;;      Totals:         1       0       0       0       0
  4705 ;;Total ram usage:        1 bytes
  4706 ;; Hardware stack levels used:    1
  4707 ;; This function calls:
  4708 ;;		Nothing
  4709 ;; This function is called by:
  4710 ;;		_Lcd_Cmd
  4711 ;;		_Lcd_Init
  4712 ;;		_Lcd_Write_Char
  4713 ;;		_Lcd_Char
  4714 ;; This function uses a non-reentrant model
  4715 ;;
  4716                           
  4717                           
  4718                           ;psect for function _Lcd_Port
  4719  0EBC                     _Lcd_Port:	
  4720                           
  4721                           ;incstack = 0
  4722                           ; Regs used in _Lcd_Port: [wreg]
  4723                           ;Lcd_Port@a stored from wreg
  4724  0EBC  00F0               	movwf	Lcd_Port@a
  4725                           
  4726                           ;pic16f87xa.c: 11: if(a & 1)
  4727  0EBD  1C70               	btfss	Lcd_Port@a,0
  4728  0EBE  2EC3               	goto	l119
  4729                           
  4730                           ;pic16f87xa.c: 12: RD4 = 1;
  4731  0EBF  1283               	bcf	3,5	;RP0=0, select bank0
  4732  0EC0  1303               	bcf	3,6	;RP1=0, select bank0
  4733  0EC1  1608               	bsf	8,4	;volatile
  4734  0EC2  2EC6               	goto	l120
  4735  0EC3                     l119:	
  4736                           
  4737                           ;pic16f87xa.c: 13: else
  4738                           ;pic16f87xa.c: 14: RD4 = 0;
  4739  0EC3  1283               	bcf	3,5	;RP0=0, select bank0
  4740  0EC4  1303               	bcf	3,6	;RP1=0, select bank0
  4741  0EC5  1208               	bcf	8,4	;volatile
  4742  0EC6                     l120:	
  4743                           
  4744                           ;pic16f87xa.c: 16: if(a & 2)
  4745  0EC6  1CF0               	btfss	Lcd_Port@a,1
  4746  0EC7  2ECA               	goto	l121
  4747                           
  4748                           ;pic16f87xa.c: 17: RD5 = 1;
  4749  0EC8  1688               	bsf	8,5	;volatile
  4750  0EC9  2ECB               	goto	l122
  4751  0ECA                     l121:	
  4752                           
  4753                           ;pic16f87xa.c: 18: else
  4754                           ;pic16f87xa.c: 19: RD5 = 0;
  4755  0ECA  1288               	bcf	8,5	;volatile
  4756  0ECB                     l122:	
  4757                           
  4758                           ;pic16f87xa.c: 21: if(a & 4)
  4759  0ECB  1D70               	btfss	Lcd_Port@a,2
  4760  0ECC  2ECF               	goto	l123
  4761                           
  4762                           ;pic16f87xa.c: 22: RD6 = 1;
  4763  0ECD  1708               	bsf	8,6	;volatile
  4764  0ECE  2ED0               	goto	l124
  4765  0ECF                     l123:	
  4766                           
  4767                           ;pic16f87xa.c: 23: else
  4768                           ;pic16f87xa.c: 24: RD6 = 0;
  4769  0ECF  1308               	bcf	8,6	;volatile
  4770  0ED0                     l124:	
  4771                           
  4772                           ;pic16f87xa.c: 26: if(a & 8)
  4773  0ED0  1DF0               	btfss	Lcd_Port@a,3
  4774  0ED1  2ED4               	goto	l125
  4775                           
  4776                           ;pic16f87xa.c: 27: RD7 = 1;
  4777  0ED2  1788               	bsf	8,7	;volatile
  4778  0ED3  0008               	return
  4779  0ED4                     l125:	
  4780                           
  4781                           ;pic16f87xa.c: 28: else
  4782                           ;pic16f87xa.c: 29: RD7 = 0;
  4783  0ED4  1388               	bcf	8,7	;volatile
  4784  0ED5  0008               	return
  4785  0ED6                     __end_of_Lcd_Port:	
  4786  007E                     btemp	set	126	;btemp
  4787  007E                     wtemp0	set	126


Data Sizes:
    Strings     360
    Constant    0
    Data        247
    BSS         50
    Persistent  0
    Stack       0

Auto Spaces:
    Space          Size  Autos    Used
    COMMON           14     14      14
    BANK0            80     26      77
    BANK1            80      0      74
    BANK3            96      0      96
    BANK2            96      0      76

Pointer List with Targets:

    strcmp@s2	PTR const unsigned char  size(1) Largest target is 3
		 -> GPRS1_Check_OK@response(COMMON[3]), GPRS1_Init@response(BANK0[3]), 

    strcmp@s1	PTR const unsigned char  size(1) Largest target is 8
		 -> GPRS1_Check_OK@gprs_data(COMMON[8]), GPRS1_Init@gprs_data(BANK0[8]), 

    GPRS1_Update@l	PTR unsigned char  size(1) Largest target is 31
		 -> locate(BANK2[31]), 

    GPRS1_Update@n	PTR unsigned char  size(1) Largest target is 5
		 -> b1(BANK0[5]), 

    GPRS1_Update@r	PTR unsigned char  size(1) Largest target is 12
		 -> a1(BANK1[12]), 

    UART1_Send@s	PTR unsigned char  size(2) Largest target is 90
		 -> b1(BANK0[5]), a1(BANK1[12]), gprs_web6(BANK1[12]), gprs_web5(BANK2[16]), 
		 -> STR_14(CODE[20]), STR_13(CODE[4]), STR_12(CODE[9]), STR_11(CODE[9]), 
		 -> STR_10(CODE[90]), STR_9(CODE[20]), gprs_web1(BANK1[12]), gprs_location(BANK2[17]), 
		 -> gprs_value5_ip(BANK0[13]), locate(BANK2[31]), gprs_value4(BANK1[13]), STR_5(CODE[36]), 
		 -> STR_4(CODE[27]), STR_3(CODE[30]), AT(BANK0[3]), 

    Lcd_String@c	PTR unsigned char  size(2) Largest target is 17
		 -> STR_16(CODE[11]), STR_15(CODE[9]), STR_8(CODE[4]), STR_7(CODE[16]), 
		 -> STR_6(CODE[16]), STR_2(CODE[15]), STR_1(CODE[17]), 

    Lcd_Write_String@a	PTR unsigned char  size(2) Largest target is 12
		 -> STR_20(CODE[12]), STR_19(CODE[11]), STR_18(CODE[12]), STR_17(CODE[12]), 


Critical Paths under _main in COMMON

    _main->_GPRS1_Init
    _Lcd_Write_String->_Lcd_Write_Char
    _Lcd_Set_Cursor->_Lcd_Cmd
    _GPS_Send3->_UART3_Read
    _GPRS1_Update->_UART1_Send
    _GPRS1_Init->_Lcd_String
    _UART1_Send->_UART1_Write
    _Lcd_String->_Lcd_Write_Char
    _Lcd_Write_Char->_Lcd_Port
    _Lcd_Init->_Lcd_Cmd
    _Lcd_Clear->_Lcd_Cmd
    _Lcd_Cmd->_Lcd_Port

Critical Paths under _main in BANK0

    _main->_GPRS1_Init
    _GPRS1_Init->_Lcd_String

Critical Paths under _main in BANK1

    None.

Critical Paths under _main in BANK3

    None.

Critical Paths under _main in BANK2

    None.

Call Graph Tables:

 ---------------------------------------------------------------------------------
 (Depth) Function   	        Calls       Base Space   Used Autos Params    Refs
 ---------------------------------------------------------------------------------
 (0) _main                                                 4     4      0    8021
                                             22 BANK0      4     4      0
                         _GPRS1_Init
                       _GPRS1_Update
                          _GPS_Send3
                          _Lcd_Clear
                           _Lcd_Init
                     _Lcd_Set_Cursor
                         _Lcd_String
                   _Lcd_Write_String
                         _UART1_Init
                         _UART2_Init
                         _UART2_Read
                         _UART3_Init
 ---------------------------------------------------------------------------------
 (1) _UART2_Read                                           4     4      0      92
                                              0 COMMON     4     4      0
 ---------------------------------------------------------------------------------
 (1) _UART2_Init                                           0     0      0       0
 ---------------------------------------------------------------------------------
 (1) _UART1_Init                                           0     0      0       0
 ---------------------------------------------------------------------------------
 (1) _Lcd_Write_String                                     7     5      2     480
                                              5 COMMON     7     5      2
                     _Lcd_Write_Char
 ---------------------------------------------------------------------------------
 (1) _Lcd_Set_Cursor                                       7     6      1     592
                                              4 COMMON     7     6      1
                            _Lcd_Cmd
 ---------------------------------------------------------------------------------
 (1) _GPS_Send3                                            1     1      0      92
                                              4 COMMON     1     1      0
                         _UART3_Init
                         _UART3_Read
 ---------------------------------------------------------------------------------
 (2) _UART3_Read                                           4     4      0      92
                                              0 COMMON     4     4      0
 ---------------------------------------------------------------------------------
 (1) _UART3_Init                                           0     0      0       0
 ---------------------------------------------------------------------------------
 (1) _GPRS1_Update                                         6     4      2    1532
                                              4 COMMON     6     4      2
                         _UART1_Send
                        _UART1_Write
 ---------------------------------------------------------------------------------
 (1) _GPRS1_Init                                          19    19      0    3446
                                             11 COMMON     3     3      0
                                              6 BANK0     16    16      0
                          _Lcd_Clear
                           _Lcd_Init
                         _Lcd_String
                   _UART1_Data_Ready
                         _UART1_Send
                        _UART1_Write
                             _strcmp
 ---------------------------------------------------------------------------------
 (2) _strcmp                                               6     4      2     251
                                              0 COMMON     6     4      2
 ---------------------------------------------------------------------------------
 (2) _UART1_Send                                           2     0      2    1286
                                              2 COMMON     2     0      2
                        _UART1_Write
 ---------------------------------------------------------------------------------
 (2) _UART1_Write                                          2     2      0      22
                                              0 COMMON     2     2      0
 ---------------------------------------------------------------------------------
 (2) _UART1_Data_Ready                                     0     0      0       0
 ---------------------------------------------------------------------------------
 (1) _Lcd_String                                          12     9      3    1390
                                              5 COMMON     6     3      3
                                              0 BANK0      6     6      0
                            _Lcd_Cmd
                     _Lcd_Write_Char
 ---------------------------------------------------------------------------------
 (2) _Lcd_Write_Char                                       4     4      0     178
                                              1 COMMON     4     4      0
                           _Lcd_Port
 ---------------------------------------------------------------------------------
 (1) _Lcd_Init                                             2     2      0     198
                                              4 COMMON     2     2      0
                            _Lcd_Cmd
                           _Lcd_Port
 ---------------------------------------------------------------------------------
 (1) _Lcd_Clear                                            0     0      0     110
                            _Lcd_Cmd
 ---------------------------------------------------------------------------------
 (2) _Lcd_Cmd                                              3     3      0     110
                                              1 COMMON     3     3      0
                           _Lcd_Port
 ---------------------------------------------------------------------------------
 (3) _Lcd_Port                                             1     1      0      88
                                              0 COMMON     1     1      0
 ---------------------------------------------------------------------------------
 Estimated maximum stack depth 3
 ---------------------------------------------------------------------------------

 Call Graph Graphs:

 _main (ROOT)
   _GPRS1_Init
     _Lcd_Clear
       _Lcd_Cmd
         _Lcd_Port
     _Lcd_Init
       _Lcd_Cmd
         _Lcd_Port
       _Lcd_Port
     _Lcd_String
       _Lcd_Cmd
         _Lcd_Port
       _Lcd_Write_Char
         _Lcd_Port
     _UART1_Data_Ready
     _UART1_Send
       _UART1_Write
     _UART1_Write
     _strcmp
   _GPRS1_Update
     _UART1_Send
       _UART1_Write
     _UART1_Write
   _GPS_Send3
     _UART3_Init
     _UART3_Read
   _Lcd_Clear
     _Lcd_Cmd
       _Lcd_Port
   _Lcd_Init
     _Lcd_Cmd
       _Lcd_Port
     _Lcd_Port
   _Lcd_Set_Cursor
     _Lcd_Cmd
       _Lcd_Port
   _Lcd_String
     _Lcd_Cmd
       _Lcd_Port
     _Lcd_Write_Char
       _Lcd_Port
   _Lcd_Write_String
     _Lcd_Write_Char
       _Lcd_Port
   _UART1_Init
   _UART2_Init
   _UART2_Read
   _UART3_Init

 Address spaces:
Name               Size   Autos  Total    Cost      Usage
BANK3               60      0      60       9      100.0%
BITBANK3            60      0       0       8        0.0%
SFR3                 0      0       0       4        0.0%
BITSFR3              0      0       0       4        0.0%
BANK2               60      0      4C      11       79.2%
BITBANK2            60      0       0      10        0.0%
SFR2                 0      0       0       5        0.0%
BITSFR2              0      0       0       5        0.0%
BANK1               50      0      4A       7       92.5%
BITBANK1            50      0       0       6        0.0%
SFR1                 0      0       0       2        0.0%
BITSFR1              0      0       0       2        0.0%
BANK0               50     1A      4D       5       96.3%
BITBANK0            50      0       0       4        0.0%
SFR0                 0      0       0       1        0.0%
BITSFR0              0      0       0       1        0.0%
COMMON               E      E       E       1      100.0%
BITCOMMON            E      0       0       0        0.0%
CODE                 0      0       0       0        0.0%
DATA                 0      0     151      12        0.0%
ABS                  0      0     151       3        0.0%
NULL                 0      0       0       0        0.0%
STACK                0      0       0       2        0.0%
EEDATA             100      0       0       0        0.0%


Microchip Technology PIC Macro Assembler V1.45 build -152302408 
Symbol Table                                                                                   Tue Apr 10 00:06:16 2018

                        _i 006C                          _j 0067                          pc 0002  
              __CFG_CP$OFF 0000                         _AT 004A                         _a1 00B9  
                       _a2 019C                         _a3 0190                         _b1 0045  
                       _a4 0110                         _b2 01C0                         _b3 01B4  
                       _c1 00A0                         _c2 01E4                         _b4 01A8  
                       _c3 01D8                         _c4 01CC                         _gr 0035  
                       fsr 0004                ?_GPRS1_Init 0070                        l120 0EC6  
                      l121 0ECA                        l122 0ECB                        l123 0ECF  
                      l124 0ED0                        l125 0ED4                        l119 0EC3  
                      l224 00BC                        l235 007A                        l227 00CE  
                      l172 0E9D                        l252 04D8                        l228 00EB  
                      l238 008C                        l239 00A9                        _RB1 0031  
                      _RB2 0032                        _RB3 0033                        _RD0 0040  
                      _RB4 0034                        _RD1 0041                        _RD2 0042  
                      _RD4 0044                        _RD5 0045                        _RD6 0046  
                      _RD7 0047               __CFG_CPD$OFF 0000                        u825 0211  
                      u924 0096                        u845 0225                        u925 0094  
                      _RX9 00C6                        u795 0F9B                        u985 0109  
                      _TX9 04C6                        fsr0 0004                        indf 0000  
      UART2_Read@DataValue 0072               __CFG_FOSC$HS 0000               __CFG_LVP$OFF 0000  
                     l2117 03DB                       l2109 03B6                       l2085 03FF  
                     l1607 0EF1                       l2095 037C                       l1651 0F56  
                     l1643 0F39                       l1627 009D                       l1637 00B4  
                     l1717 00DF                       l1583 0217                       l1647 0F41  
                     l1727 00F6                       l1593 0241                       l1665 0122  
                     l1681 0FC5                       l1907 032D                       l1861 028D  
                     l1599 0245                       l1769 04F3                       l1881 02D3  
                     l1873 02B7                       l1865 029B                       l1885 02E1  
                     l1877 02C5                       l1869 02A9                       l1899 030A  
                     STR_1 08CB                       STR_2 08FC                       STR_3 087E  
                     STR_4 089C                       STR_5 085A                       STR_6 08EC  
                     STR_7 08DC                       STR_8 0964                       STR_9 08B7  
                     _BRGH 04C2                       _CREN 00C4                       u1005 012E  
                     u2007 016F                       u2017 0EE8                       u1074 00D8  
                     u1075 00D6                       u1265 0308                       u1275 032B  
                     u1507 045C                       u1517 00C2                       u1607 00B6  
                     u1527 00C6                       u1617 061F                       u1537 00E1  
                     u1457 0372                       u1707 0706                       u1627 063B  
                     u1547 00F1                       u1467 0418                       u1717 0713  
                     u1637 0648                       u1557 00F8                       u1477 03AF  
                     u1807 0495                       u1727 0720                       u1647 0664  
                     u1567 0080                       u1487 03D4                       u1817 04B1  
                     u1737 073C                       u1657 0671                       u1577 0084  
                     u1497 03F9                       u1907 05A1                       u1827 04BE  
                     u1747 0749                       u1667 068D                       u1587 009F  
                     u1917 05BD                       u1837 0519                       u1757 0765  
                     u1677 069A                       u1597 00AF                       u1927 05CA  
                     u1847 0535                       u1767 0772                       u1687 06A7  
                     u1937 05D7                       u1857 0542                       u1777 077F  
                     u1697 06F9                       u1947 0601                       u1867 055E  
                     u1787 079B                       u1957 0EA7                       u1877 056B  
                     u1797 07A8                       u1967 0FAB                       u1887 0587  
                     u1977 0FBC                       u1897 0594                       u1987 0151  
                     _RCIF 0065                       u1997 0160                       _OERR 00C1  
                     _SPEN 00C7                       _TRMT 04C1                       _TXEN 04C5  
                     _SYNC 04C4               __CFG_WRT$OFF 0000          ?_Lcd_Write_String 0075  
                     _main 0331                       _rfid 00DD                       _rgps 006B  
                     btemp 007E           _UART1_Data_Ready 0E7E                       start 0000  
       ??_Lcd_Write_String 0077            __end_of_Lcd_Cmd 0EF1              ?_GPRS1_Update 0074  
              ?_UART1_Init 0070                ?_UART2_Init 0070                ?_UART2_Read 0070  
              ?_UART1_Send 0072                ?_UART3_Init 0070                ?_UART3_Read 0070  
       __size_of_GPS_Send3 00AF                 _Lcd_String 0203                      ?_main 0070  
                    STR_10 0800                      STR_11 094E                      STR_12 0957  
                    STR_20 0923                      STR_13 0960                      STR_14 08B7  
                    STR_15 0945                      STR_16 092F                      STR_17 0917  
            __CFG_WDTE$OFF 0000                      STR_18 090B                      STR_19 093A  
                    _RCREG 001A                      _RCSTA 0018                      _SPBRG 0099  
                    _PORTD 0008    __size_of_Lcd_Set_Cursor 004A                      _TRISD 0088  
                    _TXREG 0019                      _TXSTA 0098                GPRS1_Init@c 0061  
                    main@a 0066         GPRS1_Init@response 005B             __CFG_BOREN$OFF 0000  
                    pclath 000A                      status 0003                      wtemp0 007E  
      __size_of_GPRS1_Init 01A6           __end_of_Lcd_Init 01A3           __end_of_Lcd_Port 0ED6  
          __initialization 07B0             ??_GPRS1_Update 0076               __end_of_main 0463  
     UART3_Read@DataValue3 0072               ?_UART1_Write 0070                     ??_main 0063  
       __size_of_Lcd_Clear 000B        __size_of_UART1_Init 0023        __size_of_UART2_Init 0008  
      __size_of_UART2_Read 0042        __size_of_UART1_Send 0023        __size_of_UART3_Init 0008  
      __size_of_UART3_Read 0042          __end_of_GPS_Send3 0331                  ??_Lcd_Cmd 0071  
  __size_of_Lcd_Write_Char 003A                     _TRISB1 0431                     _TRISB2 0432  
                   _TRISB3 0433                     _TRISB4 0434                     _TRISC6 043E  
                   _TRISC7 043F        GPRS1_Init@gprs_data 0053             __CFG_PWRTE$OFF 0000  
                   _locate 013D                     _noecho 002A                ?_Lcd_String 0075  
                   _strcmp 0F37            Lcd_Set_Cursor@a 0077            Lcd_Set_Cursor@b 0074  
          Lcd_Set_Cursor@y 0079            Lcd_Set_Cursor@z 0078    __end_of__initialization 07FC  
        __end_of_Lcd_Clear 000F             __pcstackCOMMON 0070               __pidataBANK0 000F  
             __pidataBANK1 003C               __pidataBANK2 0F5C               __pidataBANK3 01A3  
             ??_GPRS1_Init 007B             Lcd_String@temp 0052             _Lcd_Set_Cursor 00FD  
 __end_of_UART1_Data_Ready 0E84                  ?_Lcd_Init 0070                  ?_Lcd_Port 0070  
     __end_of_GPRS1_Update 07B0                 __pbssBANK0 0067                 __pbssBANK1 00DD  
               __pbssBANK2 013D        __size_of_Lcd_String 007F         __end_of_GPRS1_Init 0609  
              UART2_Read@i 0073                UART1_Send@s 0072                UART3_Read@i 0073  
               __pmaintext 0331               ??_UART1_Init 0070               ??_UART2_Init 0070  
             ??_UART2_Read 0070               ??_UART1_Send 0074               ??_UART3_Init 0070  
             ??_UART3_Read 0070  __size_of_Lcd_Write_String 003D     __end_of_Lcd_Set_Cursor 0147  
                  ?_strcmp 0070       __size_of_UART1_Write 000F            UART1_Write@data 0071  
               ??_Lcd_Init 0074                 ??_Lcd_Port 0070                 __stringtab 0968  
       __end_of_UART1_Init 0F37         __end_of_UART2_Init 0E94         __end_of_UART2_Read 00FD  
       __end_of_UART1_Send 0F14         __end_of_UART3_Init 0E8C         __end_of_UART3_Read 00BB  
           _Lcd_Write_Char 0F89                    _Lcd_Cmd 0ED6       GPRS1_Init@gprs_value 0060  
            _gprs_location 011C            ?_Lcd_Set_Cursor 0074                    __ptext1 00BB  
                  __ptext2 0E8C                    __ptext3 0F14                    __ptext4 0FC3  
                  __ptext5 00FD                    __ptext6 0282                    __ptext7 0079  
                  __ptext8 0E84                    __ptext9 0609            __size_of_strcmp 0025  
            GPRS1_Update@l 0075              GPRS1_Update@n 0074              GPRS1_Update@r 0079  
                  clrloop0 0E95     __end_of_Lcd_Write_Char 0FC3       end_of_initialization 07FC  
                _GPS_Send3 0282                  Lcd_Port@a 0070               __pstringtext 0800  
                  strcmp@r 0074               ??_Lcd_String 0078      __size_of_GPRS1_Update 01A7  
          ?_Lcd_Write_Char 0070          Lcd_Write_String@a 0075          Lcd_Write_String@i 007A  
               ?_GPS_Send3 0070         __end_of_Lcd_String 0282                  _Lcd_Clear 0004  
             _GPRS1_Update 0609           _Lcd_Write_String 0FC3             __end_of_strcmp 0F5C  
      start_initialization 07B0          ?_UART1_Data_Ready 0070         ??_UART1_Data_Ready 0070  
        __size_of_Lcd_Init 005C          __size_of_Lcd_Port 001A                 ?_Lcd_Clear 0070  
               init_fetch0 0EAB                __pdataBANK0 0020                __pdataBANK1 00A0  
              __pdataBANK2 0110                __pdataBANK3 0190            GPRS1_Init@F1338 0032  
          Lcd_Write_Char@a 0074            Lcd_Write_Char@y 0073                   ??_strcmp 0072  
                ___latbits 0002              __pcstackBANK0 004D            GPRS1_Init@value 005E  
                 ?_Lcd_Cmd 0070                ??_GPS_Send3 0074           ??_Lcd_Set_Cursor 0075  
            ??_UART1_Write 0070                  __pstrings 0968                  _gprs_web1 00D1  
                _gprs_web5 012D                  _gprs_web6 00C5                  _mode_text 0020  
      GPRS1_Check_OK@F1362 002F                  clear_ram0 0E94                   Lcd_Cmd@a 0073  
              ??_Lcd_Clear 0074                __stringbase 097A           ??_Lcd_Write_Char 0071  
      __end_of_UART1_Write 0EAB                   _Lcd_Init 0147                   _Lcd_Port 0EBC  
 __end_of_Lcd_Write_String 1000           __size_of_Lcd_Cmd 001B             _gprs_value5_ip 0038  
       __end_of__stringtab 097A                   __ptext10 0463                   __ptext11 0F37  
                 __ptext20 0EBC                   __ptext12 0EF1                   __ptext13 0E9C  
                 __ptext14 0E7E                   __ptext15 0203                   __ptext16 0F89  
                 __ptext17 0147                   __ptext18 0004                   __ptext19 0ED6  
              _gprs_value4 00AC                   _gps_flag 0069              __size_of_main 0132  
__size_of_UART1_Data_Ready 0006                 _GPRS1_Init 0463                _UART1_Write 0E9C  
                 init_ram0 0EAF         Lcd_Write_Char@temp 0072                Lcd_String@a 004D  
              Lcd_String@b 0075                Lcd_String@c 0076                Lcd_String@i 004E  
              Lcd_String@y 0051                Lcd_String@z 0050                  stringcode 0972  
               _UART1_Init 0F14                 _UART2_Init 0E8C                 _UART2_Read 00BB  
               _UART1_Send 0EF1                 _UART3_Init 0E84                 _UART3_Read 0079  
       Lcd_Set_Cursor@temp 007A                   strcmp@s1 0075                   strcmp@s2 0070  
                 stringtab 0968  
